(dp1
S'UOR'
p2
S',,login.sina.com.cn'
p3
sS'SUE'
p4
S'es%3D169bc3cc09d1eae4724db07701a7b2b6%26ev%3Dv1%26es2%3D538f0ddde7b11fadae0d2cccde6eacce%26rs0%3D1L5%252BbfVuI3yv%252FDKtNRVx21EPFiDyV7Ci3wD8cR7Eb9WK4AxrT86JdMvzkxiX4wug%252BxQdPR1JfbQSPKPPKUjE6nMNgsLIwIyQlcnxsEwCFtIl7g1PQgRt%252Basz7zOVfm58uR07di4fGhkpdAPuNZSiq0fJzgx%252FAuksQVBt%252BwDUSFU%253D%26rv%3D0'
p5
sS'SUB'
p6
S'_2A254IJxqDeTxGeNL6FsR-CnIzT2IHXVbV4qirDV8PUNbuNBuLWHTkW9AB7KvkpTgoM2UjUIMSaae7KgKpw..'
p7
sS'YF-V5-G0'
p8
S'73b58b9e32dedf309da5103c77c3af4f'
p9
sS'SINAGLOBAL'
p10
S'4923967018257.826.1425265358995'
p11
sS'SUP'
p12
S'cv%3D1%26bt%3D1428483130%26et%3D1428569530%26d%3Dc909%26i%3Dccd7%26us%3D1%26vf%3D0%26vt%3D0%26ac%3D27%26st%3D0%26uid%3D5539087461%26name%3Dxunlao6384683%2540163.com%26nick%3D%25E6%2582%25A8%25E6%25BC%2582%25E6%2582%25A8%26fmp%3D%26lcp%3D2015-04-04%252007%253A44%253A35'
p13
sS'SSOLoginState'
p14
S'1428483130'
p15
sS'YF-Page-G0'
p16
S'3ef19ae4f7a156b9290efe7e6e7d1a63'
p17
sS'WBtopGlobal_register_version'
p18
S'56b492c83030fda6'
p19
sS'Apache'
p20
S'721727686468.5118.1428152548099'
p21
sS'_s_tentry'
p22
S'login.sina.com.cn'
p23
sS'SUBP'
p24
S'0033WrSXqPxfM725Ws9jqgMF55529P9D9WWuH2WkVr9y7BaSiqWCeiVB5JpX5K2t'
p25
sS'wvr'
p26
S'6'
sS'ULV'
p27
S'1428152548724:6:1:2:721727686468.5118.1428152548099:1427591190833'
p28
sS'__gads'
p29
S'ID'
p30
sS'appkey'
p31
S''
sS'SUHB'
p32
S'0G0-9bWOv6THpd'
p33
sS'ALF'
p34
S'225377283129'
p35
sS'myuid'
p36
S'5480461730'
p37
sS'YF-Ugrow-G0'
p38
S'69bfe9ce876ec10bd6de7dcebfb6883e'
p39
sS'un'
p40
S'tangcang082@163.com'
p41
sS'login_sid_t'
p42
S'd0a46b790acedad0aee5695702377a7d'
p43
sS'SUS'
p44
S'SID-5539087461-1428483130-GZ-hn6if-1a768eaec1bab02856d94784a11eccd7'
p45
s.