(dp1
S'SUE'
p2
S'es%3D274625b3c0b351b1d08669da45a65f58%26ev%3Dv1%26es2%3Dfd231efa58096e98131cb88c0af426c0%26rs0%3DWVhYcvgtWDzQTFTHHLxH7B6L%252BmWdZ4SjygoFlesXhaxWZtEAryT6hCOzBmIslKjw4kri3A%252Bg%252BEI0SjHjMzE5NLR91OEu073GMLYPl%252FuE0ZObBXSkjgQG%252BjDwhQuSMHxWf4c%252FilBM1v%252FliGHgyc3s4p9xzf5GsrzhwEPUaKYi5Tc%253D%26rv%3D0'
p3
sS'SUB'
p4
S'_2A254CVYpDeTxGeNL7VcY8SrEzjuIHXVbf8DhrDV8PUNbu9BeLWHmkW8SowfB4aJ78FOAVIcR2qBsY3FyRA..'
p5
sS'user_unver'
p6
S'a27500e6a7939bdda89058bac278426d'
p7
sS'YF-V5-G0'
p8
S'a5a264208a5b5a42590274f52e6c7304'
p9
sS'SINAGLOBAL'
p10
S'4432786474935.71.1425888241997'
p11
sS'SUP'
p12
S'cv%3D1%26bt%3D1426925177%26et%3D1427011577%26d%3Dc909%26i%3D6063%26us%3D1%26vf%3D0%26vt%3D0%26ac%3D25%26st%3D0%26uid%3D5565914857%26name%3Dfeijiechiwo49quan%2540163.com%26nick%3D%25E7%2594%25A8%25E6%2588%25B76925168384%26fmp%3D%26lcp%3D'
p13
sS'user_active'
p14
S'201503211606'
p15
sS'SSOLoginState'
p16
S'1426925170'
p17
sS'YF-Page-G0'
p18
S'f0e89c46e7ea678e9f91d029ec552e92'
p19
sS'WBtopGlobal_register_version'
p20
S'56b492c83030fda6'
p21
sS'Apache'
p22
S'6167212587315.589.1426752024963'
p23
sS'_s_tentry'
p24
S'www.baidu.com'
p25
sS'SUBP'
p26
S'0033WrSXqPxfM725Ws9jqgMF55529P9D9W5AalkFnNChYjMQ7zUX3wp35JpX5Kzt'
p27
sS'wvr'
p28
S'6'
sS'ULV'
p29
S'1426752025048:4:4:1:6167212587315.589.1426752024963:1426037325419'
p30
sS'appkey'
p31
S''
sS'SUHB'
p32
S'0cS3Uuh03z9Je5'
p33
sS'ALF'
p34
S'1458461176'
p35
sS'myuid'
p36
S'5565210958'
p37
sS'YF-Ugrow-G0'
p38
S'bcf9d6eeb05f5fa151daa66289455f9b'
p39
sS'un'
p40
S'feijiechiwo42quan@163.com'
p41
sS'login_sid_t'
p42
S'8b41724e103d596c3cb8018ec40f0438'
p43
sS'SUS'
p44
S'SID-5565914857-1426925177-GZ-xhpws-c0f7c013e8b7e3b41fbfca0f04bb6063'
p45
s.