(dp1
S'SUE'
p2
S'es%3De0a166f5d73f3f49df6b8f77e95e0b95%26ev%3Dv1%26es2%3D4ae046bc9c702bb60e48c8092c81cb84%26rs0%3Dcueh8Vwh2rwALcF%252B15S3y0BTPRi7Nv9eFLTwzY%252FzwkYEG1qbvI2eBmHetT5BDT7NRn4WsGNP9ym4G%252Fr%252BOe78HqldSMP1tzPb%252BDvtfo1R5zdpMPqpG56gAno6LxcBytRTG%252BtzdnJWkNiYUaBChk7VYdlJLkFHNDKGW0yh8fWIo%252Bg%253D%26rv%3D0'
p3
sS'SUB'
p4
S'_2A254CSZvDeTxGeNL7VcY9ifIyz6IHXVbfxCnrDV8PUNbu9BeLVjdkW8hkgOgbyeLOa6kx7v-hoCG2vJBnA..'
p5
sS'user_unver'
p6
S'520ebd174ba4a29fa3807fbd075bedea'
p7
sS'YF-V5-G0'
p8
S'a5a264208a5b5a42590274f52e6c7304'
p9
sS'SINAGLOBAL'
p10
S'4432786474935.71.1425888241997'
p11
sS'SUP'
p12
S'cv%3D1%26bt%3D1426937407%26et%3D1427023807%26d%3Dc909%26i%3D6063%26us%3D1%26vf%3D0%26vt%3D0%26ac%3D25%26st%3D0%26uid%3D5565969402%26name%3Dfeijiechiwo55quan%2540163.com%26nick%3D%25E9%25A3%259E%25E5%25A7%2590%25E5%2590%2583%25E6%2588%259155%25E6%258B%25B3%26fmp%3D%26lcp%3D'
p13
sS'user_active'
p14
S'201503211930'
p15
sS'SSOLoginState'
p16
S'1426937378'
p17
sS'YF-Page-G0'
p18
S'f0e89c46e7ea678e9f91d029ec552e92'
p19
sS'WBtopGlobal_register_version'
p20
S'56b492c83030fda6'
p21
sS'Apache'
p22
S'6167212587315.589.1426752024963'
p23
sS'_s_tentry'
p24
S'www.baidu.com'
p25
sS'SUBP'
p26
S'0033WrSXqPxfM725Ws9jqgMF55529P9D9WWwZ0y5NlaLsDTxRCVmADLF5JpX5Kzt'
p27
sS'wvr'
p28
S'6'
sS'ULV'
p29
S'1426752025048:4:4:1:6167212587315.589.1426752024963:1426037325419'
p30
sS'appkey'
p31
S''
sS'SUHB'
p32
S'0BL4IbUgfMJsnD'
p33
sS'ALF'
p34
S'1458473405'
p35
sS'myuid'
p36
S'5565968502'
p37
sS'YF-Ugrow-G0'
p38
S'bcf9d6eeb05f5fa151daa66289455f9b'
p39
sS'un'
p40
S'feijiechiwo42quan@163.com'
p41
sS'login_sid_t'
p42
S'8b41724e103d596c3cb8018ec40f0438'
p43
sS'SUS'
p44
S'SID-5565969402-1426937407-GZ-7bc0i-55ce02a2d8a722ade68d8e1ce91a6063'
p45
s.