(dp1
S'SUE'
p2
S'es%3D8bf25329a4578b2cb044052115bff9bb%26ev%3Dv1%26es2%3Dd60b9b9c5b4bbb29f3415d82b483b573%26rs0%3DWdeopYZYReK5FOJNlaqaewpi%252BofCQDoX22Ys%252FAkfokqOec10vS%252BMQxFAK6dz8yIAvpB2v7p8W8NUec920kgOG9FkBd9by0hJh3BJF5KR7BR8ABx0ZOxsre627fOhdjh750al17oAkES%252FdEKoe6Ub23ECG%252BLpPLrySEZVR0a5fLU%253D%26rv%3D0'
p3
sS'SUB'
p4
S'_2AkMjP5-Pa8NlrAZSnPwWxG_gaIRH-jyQ7FV5An7uJhIyHRgf7lheqSWLy2HmeIgSMkyS50V-4ZCH5-NV8w..'
p5
sS'SUBP'
p6
S'0033WrSXqPxfM725Ws9jqgMF55529P9D9WhHRyoj9sD0_Jzxbu0leZv05JpX5K2t'
p7
sS'YF-Page-G0'
p8
S'f70469e0b5607cacf38b47457e34254f'
p9
sS'ALF'
p10
S'1416383286'
p11
sS'ULV'
p12
S'1415778247059:10:7:2:3774758167564.869.1415778247001:1415606403157'
p13
sS'myuid'
p14
S'5344662915'
p15
sS'YF-Ugrow-G0'
p16
S'5b31332af1361e117ff29bb32e4d8439'
p17
sS'WBtopGlobal_register_version'
p18
S'fbfbfbcb9cac9bbd'
p19
sS'un'
p20
S'feijieshouwo2bai@163.com'
p21
sS'SINAGLOBAL'
p22
S'7734374171122.908.1414377016987'
p23
sS'YF-V5-G0'
p24
S'590253f9bb559fcb4f19c58020522401'
p25
sS'SUP'
p26
S'cv%3D1%26bt%3D1415778488%26et%3D1415864888%26d%3Dc909%26i%3De4e7%26us%3D1%26vf%3D0%26vt%3D0%26ac%3D27%26st%3D0%26uid%3D5344384249%26name%3Dfeijieshouwo2bai%2540163.com%26nick%3D%25E9%25A3%259E%25E5%25A7%2590%25E5%258F%2597%25E6%2588%25912%25E6%258B%259C%26fmp%3D%26lcp%3D'
p27
sS'Apache'
p28
S'3774758167564.869.1415778247001'
p29
sS'SUS'
p30
S'SID-5344384249-1415778488-GZ-hvi97-126d91c7bdb3c722fbae67268604e4e7'
p31
sS'SSOLoginState'
p32
S'1415778488'
p33
sS'_s_tentry'
p34
S'us.weibo.com'
p35
s.