(dp1
S'UOR'
p2
S',,login.sina.com.cn'
p3
sS'SUE'
p4
S'es%3D5d5c4264e45e31d33942cab83fba64cf%26ev%3Dv1%26es2%3D9571461fe7840e7d5a76f7cae758a61f%26rs0%3DanJ4nS9o5SYJ7IwEWJHp9oYNbxJ4%252BAWNGV1Eh%252Bz5BzdXzEi2KGTn95qunb5CVndUshKS31h99k3WedynYCaqJZnBab%252B0YKTfUj4xPDr%252FLbwf9sbkUdH57LguqjjpGxKMctJN3qiKsCL354HeP4UP2xZ6k8KknvuF49OJJ0Nxz34%253D%26rv%3D0'
p5
sS'SUB'
p6
S'_2A254IIbPDeTxGeNK41IV9i_LyDuIHXVbV_8HrDV8PUNbuNBuLWeikW9-MQgS3fkl8WzCo_EmKnLX7EWC5Q..'
p7
sS'YF-V5-G0'
p8
S'73b58b9e32dedf309da5103c77c3af4f'
p9
sS'SINAGLOBAL'
p10
S'4923967018257.826.1425265358995'
p11
sS'SUP'
p12
S'cv%3D1%26bt%3D1428485791%26et%3D1428572191%26d%3Dc909%26i%3Dccd7%26us%3D1%26vf%3D0%26vt%3D0%26ac%3D27%26st%3D0%26uid%3D5480461737%26name%3Djiantuimeiao%2540163.com%26nick%3D%25E9%259B%25B7%25E5%25AE%258B%25E4%25B8%2588%25E6%2589%2592%26fmp%3D%26lcp%3D2015-04-04%252007%253A44%253A55'
p13
sS'SSOLoginState'
p14
S'1428485791'
p15
sS'YF-Page-G0'
p16
S'3ef19ae4f7a156b9290efe7e6e7d1a63'
p17
sS'WBtopGlobal_register_version'
p18
S'56b492c83030fda6'
p19
sS'Apache'
p20
S'721727686468.5118.1428152548099'
p21
sS'_s_tentry'
p22
S'login.sina.com.cn'
p23
sS'SUBP'
p24
S'0033WrSXqPxfM725Ws9jqgMF55529P9D9WFfX9YnTT07U5FiRDUSA47e5JpX5K2t'
p25
sS'wvr'
p26
S'6'
sS'ULV'
p27
S'1428152548724:6:1:2:721727686468.5118.1428152548099:1427591190833'
p28
sS'WBStore'
p29
S'bf5c852d78c6d23c|undefined'
p30
sS'__gads'
p31
S'ID'
p32
sS'appkey'
p33
S''
sS'SUHB'
p34
S'0OM0ZIyuuMEWKV'
p35
sS'ALF'
p36
S'225377285791'
p37
sS'myuid'
p38
S'5480240910'
p39
sS'YF-Ugrow-G0'
p40
S'69bfe9ce876ec10bd6de7dcebfb6883e'
p41
sS'un'
p42
S'tangcang082@163.com'
p43
sS'login_sid_t'
p44
S'd0a46b790acedad0aee5695702377a7d'
p45
sS'SUS'
p46
S'SID-5480461737-1428485791-GZ-zq83n-210d893b082f58b21642f566e9ceccd7'
p47
s.