(dp1
S'UOR'
p2
S',,login.sina.com.cn'
p3
sS'SUE'
p4
S'es%3Da595f3905905a3ca79af31b2348643f9%26ev%3Dv1%26es2%3D7e729739850a269eb3fa6811475e724f%26rs0%3DIgdzQmGKVQVMD1VNIK1tsErKL7vYIrTeBLHBkm9Tm%252FLMpEN3fjol2tY0MrlriqQ%252FH%252FXzJ9McqOHPu60c3O0%252FC9CdSYrLYMLzM2CUnmHcYX077YTBiKgpN5vDR8NBQsu5nTFAxHCxQuRE4S8Sow2f1F98bVt69iTJ42AbIhJJ5HE%253D%26rv%3D0'
p5
sS'SUB'
p6
S'_2A254IXnIDeTxGeNK41IV9i_Lzz2IHXVbV-wArDV8PUNbuNBuLXL1kW-Y7hhhnLJ05-MQARGf51jrzV-VKQ..'
p7
sS'YF-V5-G0'
p8
S'73b58b9e32dedf309da5103c77c3af4f'
p9
sS'SINAGLOBAL'
p10
S'4923967018257.826.1425265358995'
p11
sS'SUP'
p12
S'cv%3D1%26bt%3D1428490648%26et%3D1428577048%26d%3Dc909%26i%3Dccd7%26us%3D1%26vf%3D0%26vt%3D0%26ac%3D27%26st%3D0%26uid%3D5480461741%26name%3Dwojing09056332%2540163.com%26nick%3D%25E5%25AF%25B9%25E6%258F%2589%25E6%25A7%2590%25E4%25B9%25B1%25E7%259C%258B%26fmp%3D%26lcp%3D2015-04-04%252007%253A45%253A11'
p13
sS'SSOLoginState'
p14
S'1428490648'
p15
sS'YF-Page-G0'
p16
S'3ef19ae4f7a156b9290efe7e6e7d1a63'
p17
sS'WBtopGlobal_register_version'
p18
S'56b492c83030fda6'
p19
sS'Apache'
p20
S'721727686468.5118.1428152548099'
p21
sS'_s_tentry'
p22
S'login.sina.com.cn'
p23
sS'SUBP'
p24
S'0033WrSXqPxfM725Ws9jqgMF55529P9D9Wh2aCfjbmDTyvo3OaMr1XHm5JpX5K2t'
p25
sS'wvr'
p26
S'6'
sS'ULV'
p27
S'1428152548724:6:1:2:721727686468.5118.1428152548099:1427591190833'
p28
sS'WBStore'
p29
S'bf5c852d78c6d23c|undefined'
p30
sS'__gads'
p31
S'ID'
p32
sS'appkey'
p33
S''
sS'SUHB'
p34
S'0M2VscDk2P4UVC'
p35
sS'ALF'
p36
S'225377290648'
p37
sS'myuid'
p38
S'5480240911'
p39
sS'YF-Ugrow-G0'
p40
S'69bfe9ce876ec10bd6de7dcebfb6883e'
p41
sS'un'
p42
S'tangcang082@163.com'
p43
sS'login_sid_t'
p44
S'd0a46b790acedad0aee5695702377a7d'
p45
sS'SUS'
p46
S'SID-5480461741-1428490648-GZ-lrjvz-f2529bf6905cd1bd7448a6794aafccd7'
p47
s.