(dp1
S'wvr'
p2
S'6'
sS'SUE'
p3
S'es%3Dc42af0c1fe1899af44e499f85f5b8e76%26ev%3Dv1%26es2%3D0f29c3334d5b3d8c2c0d783e87ed25cf%26rs0%3DBEEM86F%252FOkuekmY%252BT6BhnyFl738x4BVkFebt5wo7Aua4vAld%252FGz27BL7kcThspz0qDKkrGiOhQiRRjMu7tunxv%252BaAaxkKpvEGGajo9yoVIi3YmVWWgY%252BxEKcZu2orWL9kFNiFV6r17PpuLVO4P0SLEyLDrWfgjQkf%252BslN4b8tZI%253D%26rv%3D0'
p4
sS'SUB'
p5
S'_2A254IJn6DeTxGeNK41IT9C7FyT2IHXVbV4wyrDV8PUNbuNBeLXnQkW977DHNy4v__qrEWJPpGQJkHyD3qg..'
p6
sS'SUBP'
p7
S'0033WrSXqPxfM725Ws9jqgMF55529P9D9WhvXi8UEHi0a6oEgA7qUmDJ5JpX5K2t'
p8
sS'YF-Ugrow-G0'
p9
S'ad06784f6deda07eea88e095402e4243'
p10
sS'ALF'
p11
S'1460018473'
p12
sS'__utma'
p13
S'15428400.1284777743.1427359191.1427359191.1427359191.1'
p14
sS'ULV'
p15
S'1428482455287:10:3:1:3664370903279.6323.1428482455247:1428028173429'
p16
sS'SUHB'
p17
S'0gHyG-lquCJcSY'
p18
sS'myuid'
p19
S'5576036717'
p20
sS'login_sid_t'
p21
S'e630f9ef01f776cf74b14dd6dc4272bb'
p22
sS'WBtopGlobal_register_version'
p23
S'56b492c83030fda6'
p24
sS'un'
p25
S'zhehanyizhong@163.com'
p26
sS'SINAGLOBAL'
p27
S'4432786474935.71.1425888241997'
p28
sS'YF-V5-G0'
p29
S'69afb7c26160eb8b724e8855d7b705c6'
p30
sS'SUP'
p31
S'cv%3D1%26bt%3D1428482474%26et%3D1428568874%26d%3Dc909%26i%3D6063%26us%3D1%26vf%3D0%26vt%3D0%26ac%3D19%26st%3D0%26uid%3D5480240921%26name%3Dzhehanyizhong%2540163.com%26nick%3D%25E7%25BA%25B5%25E6%2580%2595%25E5%2596%25B7%26fmp%3D%26lcp%3D2015-04-04%252007%253A45%253A40'
p32
sS'Apache'
p33
S'3664370903279.6323.1428482455247'
p34
sS'SUS'
p35
S'SID-5480240921-1428482475-GZ-8s3pg-b5ed2cf7d0426f59a0262b00bc006063'
p36
sS'SSOLoginState'
p37
S'1428482475'
p38
sS'_s_tentry'
p39
S'login.sina.com.cn'
p40
sS'__utmz'
p41
S'15428400.1427359191.1.1.utmcsr=weibo.com|utmccn=(referral)|utmcmd=referral|utmcct=/'
p42
s.