(dp1
S'UOR'
p2
S',,login.sina.com.cn'
p3
sS'SUE'
p4
S'es%3D13c687615fa62f1f34fe659c248b5752%26ev%3Dv1%26es2%3D545ab3110618fa16875da65c9d439722%26rs0%3DkGrDcAQNCdTkjFrS0A5pwaY%252Fly0CsGqFdh9JT2xHMoOCeZzoWIXNvu3U%252BWAe3J%252FgjS%252BowEgc8HyxGDRvbj6hJYfn0%252Fu%252FjuJT7GylLhcIm8qpsMttxqFyew4dnRXQxob2bNgud2UbftKyr85ucYgmqkazlRKtr6JDmnfYYjUaQdk%253D%26rv%3D0'
p5
sS'SUB'
p6
S'_2A254IJzsDeTxGeNL6FsR-CnIzjqIHXVbV4kkrDV8PUNbuNBuLVjXkW9ZT6fvJQMdbg7G7WypLSDK-LJb7w..'
p7
sS'YF-V5-G0'
p8
S'73b58b9e32dedf309da5103c77c3af4f'
p9
sS'SINAGLOBAL'
p10
S'4923967018257.826.1425265358995'
p11
sS'SUP'
p12
S'cv%3D1%26bt%3D1428483260%26et%3D1428569660%26d%3Dc909%26i%3Dccd7%26us%3D1%26vf%3D0%26vt%3D0%26ac%3D27%26st%3D0%26uid%3D5539087456%26name%3Ddaowoshina%2540163.com%26nick%3D%25E7%2594%25A8%25E6%2588%25B75539087456%26fmp%3D%26lcp%3D2015-04-04%252007%253A44%253A30'
p13
sS'SSOLoginState'
p14
S'1428483260'
p15
sS'YF-Page-G0'
p16
S'3ef19ae4f7a156b9290efe7e6e7d1a63'
p17
sS'WBtopGlobal_register_version'
p18
S'56b492c83030fda6'
p19
sS'Apache'
p20
S'721727686468.5118.1428152548099'
p21
sS'_s_tentry'
p22
S'login.sina.com.cn'
p23
sS'SUBP'
p24
S'0033WrSXqPxfM725Ws9jqgMF55529P9D9W5Q2NiB1Q_OGAzXkNGlNEQv5JpX5K2t'
p25
sS'wvr'
p26
S'6'
sS'ULV'
p27
S'1428152548724:6:1:2:721727686468.5118.1428152548099:1427591190833'
p28
sS'__gads'
p29
S'ID'
p30
sS'appkey'
p31
S''
sS'SUHB'
p32
S'0pHhB72J8URUTd'
p33
sS'ALF'
p34
S'225377283260'
p35
sS'myuid'
p36
S'5539087461'
p37
sS'YF-Ugrow-G0'
p38
S'69bfe9ce876ec10bd6de7dcebfb6883e'
p39
sS'un'
p40
S'tangcang082@163.com'
p41
sS'login_sid_t'
p42
S'd0a46b790acedad0aee5695702377a7d'
p43
sS'SUS'
p44
S'SID-5539087456-1428483260-GZ-t2qpg-fa4d0c05187d767c671141d0bd36ccd7'
p45
s.