(dp1
S'SUE'
p2
S'es%3Dfb9053056e2b956cab48c7a16fa8dd4b%26ev%3Dv1%26es2%3D011578c601d1863e9fd4dc0d65fe1166%26rs0%3DmK3lr4iwJYZryE16hI6BONj74EMzV1R6rtBFA1Wsp0GVHzzg2fgJMSDaub1LWk%252FuXfcZTbzGMCW0ZnxJW%252FvuhgYY%252B86flnBFh7Sxg2gxpybGNz62o30Nk1PQkIAI7wf6DYsKxMOL%252Fqzy640VoFHJnNJ2QKjxOsYub9saGAy1hjQ%253D%26rv%3D0'
p3
sS'SUB'
p4
S'_2AkMjP52Ca8NlrAZSnPsUzGLnZYxH-jyQ7FN0An7uJhMyHRh77kolqSW9KwUyd9Rx_7njqWJcdNpjsFNQKA..'
p5
sS'SUBP'
p6
S'0033WrSXqPxfM725Ws9jqgMF55529P9D9W54R7HF0dny4a3zKUzzw7Cl5JpX5K2t'
p7
sS'YF-Page-G0'
p8
S'f70469e0b5607cacf38b47457e34254f'
p9
sS'ULV'
p10
S'1415778247059:10:7:2:3774758167564.869.1415778247001:1415606403157'
p11
sS'myuid'
p12
S'5344385256'
p13
sS'YF-Ugrow-G0'
p14
S'5b31332af1361e117ff29bb32e4d8439'
p15
sS'WBtopGlobal_register_version'
p16
S'fbfbfbcb9cac9bbd'
p17
sS'un'
p18
S'feijieshouwo2bai@163.com'
p19
sS'SINAGLOBAL'
p20
S'7734374171122.908.1414377016987'
p21
sS'YF-V5-G0'
p22
S'590253f9bb559fcb4f19c58020522401'
p23
sS'SUP'
p24
S'cv%3D1%26bt%3D1415778997%26et%3D1415865397%26d%3Dc909%26i%3Decae%26us%3D1%26vf%3D%26vt%3D%26ac%3D%26st%3D0%26uid%3D5343109591%26name%3Dfeijieshouwo5bai%2540163.com%26nick%3D%25E9%25A3%259E%25E5%25A7%2590%25E5%258F%2597%25E6%2588%25915%25E6%258B%259C%26fmp%3D%26lcp%3D'
p25
sS'Apache'
p26
S'3774758167564.869.1415778247001'
p27
sS'SUS'
p28
S'SID-5343109591-1415778997-XD-q6tm7-a4b3989ba289ddf357ce81d2d1609616'
p29
sS'SSOLoginState'
p30
S'1415778997'
p31
sS'_s_tentry'
p32
S'us.weibo.com'
p33
s.