(dp1
S'SUE'
p2
S'es%3D912faa8e5b802eeffa53f6d59c7e917d%26ev%3Dv1%26es2%3Dae21102d426bb231b0743c583def07bf%26rs0%3DV9zshRemoTN0smTZ%252Bq1GG%252FlqAI4F3xHdopQDjyOaBUBTExZmCv5XdR2ohV6D498xFApzq0By%252ByxNd%252BYjcRPAkR7PjscwZHuyLfsXzqHhGVgsqdz8n8YbHKG314Ue9flQjBdsQSMkmlSmJM3rfU9iWQgsf2Tz3Oks2%252FciPd2%252BKWE%253D%26rv%3D0'
p3
sS'SUB'
p4
S'_2AkMjP54ra8NlrAZSnPsUzGPkZIVH-jyQ7FLdAn7uJhMyHRh77lsgqSUqT2Zy8r-Hsm_NCZGJTZZRCMQnXw..'
p5
sS'SUBP'
p6
S'0033WrSXqPxfM725Ws9jqgMF55529P9D9WhAFhFRNrQFFrQiOimcZhW25JpX5K2t'
p7
sS'YF-Page-G0'
p8
S'f70469e0b5607cacf38b47457e34254f'
p9
sS'ULV'
p10
S'1415778247059:10:7:2:3774758167564.869.1415778247001:1415606403157'
p11
sS'myuid'
p12
S'5344384249'
p13
sS'YF-Ugrow-G0'
p14
S'5b31332af1361e117ff29bb32e4d8439'
p15
sS'WBtopGlobal_register_version'
p16
S'fbfbfbcb9cac9bbd'
p17
sS'un'
p18
S'feijieshouwo2bai@163.com'
p19
sS'SINAGLOBAL'
p20
S'7734374171122.908.1414377016987'
p21
sS'YF-V5-G0'
p22
S'590253f9bb559fcb4f19c58020522401'
p23
sS'SUP'
p24
S'cv%3D1%26bt%3D1415778588%26et%3D1415864988%26d%3Dc909%26i%3Decae%26us%3D1%26vf%3D%26vt%3D%26ac%3D%26st%3D0%26uid%3D5343108688%26name%3Dfeijieshouwo3bai%2540163.com%26nick%3D%25E9%25A3%259E%25E5%25A7%2590%25E5%258F%2597%25E6%2588%25913%25E6%258B%259C%26fmp%3D%26lcp%3D'
p25
sS'Apache'
p26
S'3774758167564.869.1415778247001'
p27
sS'SUS'
p28
S'SID-5343108688-1415778588-XD-koqz4-fbf87b2e03147ba11a34d533992d9616'
p29
sS'_s_tentry'
p30
S'us.weibo.com'
p31
s.