(dp1
S'SUE'
p2
S'es%3D8f05a0d49589c1632012b347d5d0cbd4%26ev%3Dv1%26es2%3De31719ec0c1b6d9f119d541b59473f03%26rs0%3DRDhVTizkd4Ds2HNWRssmM3FO8UyCWMtDzFU41LDc8VVouEfyijHzGBf6cKoJf6rtY5dSMobdcQF4fEeAqVzcJUjZEG92T2zXCPeZ3ZX2fTvSLvA%252FeLReg5pku8YWuh2%252BkeYMmO%252FCPBPzfnmnFwdnSP3xusKUz%252Ft2HyTe45wIuDY%253D%26rv%3D0'
p3
sS'SUB'
p4
S'_2A254CVkeDeTxGeNL7VcY8SnIzzWIHXVbf83WrDV8PUNbu9BeLVPbkW9Z2sS8inO4yo_I3MGGw41RAQor0g..'
p5
sS'user_unver'
p6
S'a33aeca6c44833e89093269f88d34905'
p7
sS'YF-V5-G0'
p8
S'a5a264208a5b5a42590274f52e6c7304'
p9
sS'SINAGLOBAL'
p10
S'4432786474935.71.1425888241997'
p11
sS'SUP'
p12
S'cv%3D1%26bt%3D1426925902%26et%3D1427012302%26d%3Dc909%26i%3D6063%26us%3D1%26vf%3D0%26vt%3D0%26ac%3D25%26st%3D0%26uid%3D5565917449%26name%3Dfeijiechiwo50quan%2540163.com%26nick%3D%25E9%25A3%259E%25E5%25A7%2590%25E5%2590%2583%25E6%2588%259150%25E6%258B%25B3%26fmp%3D%26lcp%3D'
p13
sS'user_active'
p14
S'201503211618'
p15
sS'SSOLoginState'
p16
S'1426925771'
p17
sS'YF-Page-G0'
p18
S'f0e89c46e7ea678e9f91d029ec552e92'
p19
sS'WBtopGlobal_register_version'
p20
S'56b492c83030fda6'
p21
sS'Apache'
p22
S'6167212587315.589.1426752024963'
p23
sS'_s_tentry'
p24
S'www.baidu.com'
p25
sS'SUBP'
p26
S'0033WrSXqPxfM725Ws9jqgMF55529P9D9WFRZJ2-MqDeq9C6WLOnw.q85JpX5Kzt'
p27
sS'wvr'
p28
S'6'
sS'ULV'
p29
S'1426752025048:4:4:1:6167212587315.589.1426752024963:1426037325419'
p30
sS'appkey'
p31
S''
sS'SUHB'
p32
S'0id7e2tXouOZ8g'
p33
sS'ALF'
p34
S'1458461901'
p35
sS'myuid'
p36
S'5565914857'
p37
sS'YF-Ugrow-G0'
p38
S'bcf9d6eeb05f5fa151daa66289455f9b'
p39
sS'un'
p40
S'feijiechiwo42quan@163.com'
p41
sS'login_sid_t'
p42
S'8b41724e103d596c3cb8018ec40f0438'
p43
sS'SUS'
p44
S'SID-5565917449-1426925902-GZ-j46q9-ff0305fd3ee886765469f595a20d6063'
p45
s.