(dp1
S'wvr'
p2
S'6'
sS'UOR'
p3
S',,www.google.com.sg'
p4
sS'SUE'
p5
S'es%3Dd3ff1401fe5e91f3b83a2be9c994fe7a%26ev%3Dv1%26es2%3D803e4dfb6f67d97d4f2572ffcd2e6ce9%26rs0%3DOnOhgqdcOa9a0bXyVX%252BlJRLwmmYBnBk1ygKL%252BHItaotmiJDy3JUYv686K0mXl%252FwU%252FOtOLnD5wvxGGrtvP8OHNud8ECWFfcxrHIt2XWvc75jHP6LZSguR0S6F2husUpxlJ6ZjaDSy1eBV5avFTYQacU03W90mkVXt89z9bpndH%252BI%253D%26rv%3D0'
p6
sS'SUB'
p7
S'_2A254IKXuDeTxGedJ71IX9S_FzD-IHXVbV5AmrDV8PUNbuNBuLUHdkW9G7SSMeR8LCN5PmbuwExqyGmTr8g..'
p8
sS'SUBP'
p9
S'0033WrSXqPxfM725Ws9jqgMF55529P9D9WWIQASSE1Dw_pnKAqvPLQde5JpX5K2t'
p10
sS'YF-Page-G0'
p11
S'3ef19ae4f7a156b9290efe7e6e7d1a63'
p12
sS'ALF'
p13
S'225377277373'
p14
sS'ULV'
p15
S'1428152548724:6:1:2:721727686468.5118.1428152548099:1427591190833'
p16
sS'myuid'
p17
S'2257461595'
p18
sS'__gads'
p19
S'ID'
p20
sS'YF-Ugrow-G0'
p21
S'69bfe9ce876ec10bd6de7dcebfb6883e'
p22
sS'YF-V5-G0'
p23
S'73b58b9e32dedf309da5103c77c3af4f'
p24
sS'SINAGLOBAL'
p25
S'4923967018257.826.1425265358995'
p26
sS'SUP'
p27
S'cv%3D1%26bt%3D1428477374%26et%3D1428563774%26d%3Dc909%26i%3Dccd7%26us%3D1%26vf%3D0%26vt%3D0%26ac%3D27%26st%3D0%26uid%3D1740651973%26name%3Duglybaby%2540163.com%26nick%3D%25E5%25A4%25A7%25E7%258C%25AA%25E9%25B9%258F%25E9%25B9%258F%26fmp%3D%26lcp%3D2011-09-16%252000%253A17%253A23'
p28
sS'Apache'
p29
S'721727686468.5118.1428152548099'
p30
sS'SUS'
p31
S'SID-1740651973-1428477374-GZ-zl4xf-6b365327044bec38bbc002f36b1bccd7'
p32
sS'SSOLoginState'
p33
S'1428477374'
p34
sS'_s_tentry'
p35
S'login.sina.com.cn'
p36
sS'SUHB'
p37
S'0z1RnNK9nFB50E'
p38
s.