(dp1
S'SUE'
p2
S'es%3D8129e22e6fa5d24d8bef1a6da5e34ecb%26ev%3Dv1%26es2%3D9c7089314b1046693bf77b634a9b5a3c%26rs0%3DY%252ByZ0I%252B6V2XAb2ajoRVbn6eAcwGuJYfA%252BxdWeur5ED3FmU1sYmAaAQCfowbMvlQdKAxtDmP0JNZJM2xa2p0m8orQnlUzO1qwYfnzdMZ2Z11LJ3xyn2qdNKa494Ooi7401kBj3HYUvXpxh5B5wFYAmTp5mlMAKhuJP9jXjG8ud4A%253D%26rv%3D0'
p3
sS'SUB'
p4
S'_2A254IIJWDeTxGeNL6FsR-CnJyDyIHXVbV_SerDV8PUNbuNBeLU7TkW9HZXMg5TFXYxuc3ZRK6A7mS-tJkw..'
p5
sS'YF-V5-G0'
p6
S'69afb7c26160eb8b724e8855d7b705c6'
p7
sS'SINAGLOBAL'
p8
S'4432786474935.71.1425888241997'
p9
sS'SUP'
p10
S'cv%3D1%26bt%3D1428484614%26et%3D1428571014%26d%3Dc909%26i%3D6063%26us%3D1%26vf%3D0%26vt%3D0%26ac%3D27%26st%3D0%26uid%3D5539087530%26name%3Dzhangkancangyue%2540163.com%26nick%3D%25E7%2583%25A6%25E5%25BE%2580%25E7%25A7%25BB%26fmp%3D%26lcp%3D2015-04-04%252007%253A45%253A59'
p11
sS'SSOLoginState'
p12
S'1428484614'
p13
sS'YF-Page-G0'
p14
S'fd1c2f5a1b1b0aec242690ee6b1d7f51'
p15
sS'WBtopGlobal_register_version'
p16
S'56b492c83030fda6'
p17
sS'Apache'
p18
S'3664370903279.6323.1428482455247'
p19
sS'_s_tentry'
p20
S'login.sina.com.cn'
p21
sS'__utmz'
p22
S'15428400.1427359191.1.1.utmcsr=weibo.com|utmccn=(referral)|utmcmd=referral|utmcct=/'
p23
sS'SUBP'
p24
S'0033WrSXqPxfM725Ws9jqgMF55529P9D9WWxxEJDdARcyxUl-mD15H._5JpX5K2t'
p25
sS'wvr'
p26
S'6'
sS'ULV'
p27
S'1428482455287:10:3:1:3664370903279.6323.1428482455247:1428028173429'
p28
sS'__utma'
p29
S'15428400.1284777743.1427359191.1427359191.1427359191.1'
p30
sS'SUHB'
p31
S'0YhB1fFFciz64P'
p32
sS'ALF'
p33
S'1460020612'
p34
sS'myuid'
p35
S'5539087540'
p36
sS'YF-Ugrow-G0'
p37
S'ad06784f6deda07eea88e095402e4243'
p38
sS'un'
p39
S'zhangkancangyue@163.com'
p40
sS'login_sid_t'
p41
S'e630f9ef01f776cf74b14dd6dc4272bb'
p42
sS'SUS'
p43
S'SID-5539087530-1428484614-GZ-s41a3-bfeb7ad81cf2e954eb7ed9007bd56063'
p44
s.