(dp1
S'UOR'
p2
S',,login.sina.com.cn'
p3
sS'SUE'
p4
S'es%3D310a988ce389d6078e402b86d6570319%26ev%3Dv1%26es2%3D777531455271083a978afc5c7227e021%26rs0%3DCuPDcvUM3baO38BhkCf%252BuNfkPBtaOc1Bj87LY4FysGTGm7TelqF3xslD5zOWlTsoHamHm6j25C4jBEQN3d0B9ip9qcjVTQybOBQK5iOvePez1idOgTuLfoovuqy0%252FsEmBkt5KB48jaRoJNTQUqAGTn8MZUz%252BsD5ZUeYSdHESrQM%253D%26rv%3D0'
p5
sS'SUB'
p6
S'_2A254IXx9DeTxGeNL6FYX9yjPyTqIHXVbV-q1rDV8PUNbuNBuLXPbkW9W88QJRTbI5IbCoiu1unQ_XafWvg..'
p7
sS'YF-V5-G0'
p8
S'73b58b9e32dedf309da5103c77c3af4f'
p9
sS'SINAGLOBAL'
p10
S'4923967018257.826.1425265358995'
p11
sS'SUP'
p12
S'cv%3D1%26bt%3D1428491309%26et%3D1428577709%26d%3Dc909%26i%3Dccd7%26us%3D1%26vf%3D0%26vt%3D0%26ac%3D27%26st%3D0%26uid%3D5534676326%26name%3Dogveyrupsg02174%2540163.com%26nick%3D%25E8%2583%258C%25E9%25B9%2585%25E5%258D%2583%26fmp%3D%26lcp%3D2015-04-04%252007%253A45%253A18'
p13
sS'SSOLoginState'
p14
S'1428491309'
p15
sS'YF-Page-G0'
p16
S'3ef19ae4f7a156b9290efe7e6e7d1a63'
p17
sS'WBtopGlobal_register_version'
p18
S'56b492c83030fda6'
p19
sS'Apache'
p20
S'721727686468.5118.1428152548099'
p21
sS'_s_tentry'
p22
S'login.sina.com.cn'
p23
sS'SUBP'
p24
S'0033WrSXqPxfM725Ws9jqgMF55529P9D9WF8RaFPsYxXeNB9jesmabiU5JpX5K2t'
p25
sS'wvr'
p26
S'6'
sS'ULV'
p27
S'1428152548724:6:1:2:721727686468.5118.1428152548099:1427591190833'
p28
sS'WBStore'
p29
S'bf5c852d78c6d23c|undefined'
p30
sS'__gads'
p31
S'ID'
p32
sS'appkey'
p33
S''
sS'SUHB'
p34
S'0U1Zim-WcMJR0F'
p35
sS'ALF'
p36
S'225377291309'
p37
sS'myuid'
p38
S'5539087494'
p39
sS'YF-Ugrow-G0'
p40
S'69bfe9ce876ec10bd6de7dcebfb6883e'
p41
sS'un'
p42
S'tangcang082@163.com'
p43
sS'login_sid_t'
p44
S'd0a46b790acedad0aee5695702377a7d'
p45
sS'SUS'
p46
S'SID-5534676326-1428491309-GZ-nk6pa-2116be2838db97127774e6608ed8ccd7'
p47
s.