(dp1
S'UOR'
p2
S'developer.51cto.com,widget.weibo.com,login.sina.com.cn'
p3
sS'SUE'
p4
S'es%3D26b85ea2726c9e59091bb2f12d2340b2%26ev%3Dv1%26es2%3Da80524cd6bfbf5fcebdd88f2eb8c6a01%26rs0%3DPW0tgmhcgU8acdAYwtGNqtTZ6LUzeulCXokTGXcoucJcmlzl4m%252FfdWoUkddv943NGXCr9XPw0RR06LIiKlS5ZxkOJz98UpOuz0UQXcA8UQj4fuEg%252FyWxBtKUHVx6fqWA0YzHuO1weJ4%252BXQ5m%252F13OiY8P1kWdEfSOQJSkkCV5NQM%253D%26rv%3D0'
p5
sS'SUB'
p6
S'_2A254LJDADeTxGeVI6VES8inJzD-IHXVbW4UIrDV8PUJbuNBuLWnCkW8D6tkPBafa_1n2l40DADeKwgZg-Q..'
p7
sS'SUBP'
p8
S'0033WrSXqPxfM725Ws9jqgMF55529P9D9WWiboX8wfKgK0n9XqLh8hsI5JpX5K2t'
p9
sS'YF-Page-G0'
p10
S'8ec35b246bb5b68c13549804abd380dc'
p11
sS'wvr'
p12
S'6\n'
p13
sS'SUP'
p14
S'cv%3D1%26bt%3D1428742288%26et%3D1428828688%26d%3Dc909%26i%3Ddc63%26us%3D1%26vf%3D0%26vt%3D0%26ac%3D0%26st%3D0%26uid%3D3623327573%26name%3Dadoni1203%2540gmail.com%26nick%3D%25E5%25AD%2599%25E6%2599%2593%25E9%25A3%259E-Adoni%26fmp%3D%26lcp%3D'
p15
sS'ULV'
p16
S'1428730692550:14:4:4:9628097072709.352.1428730692543:1428545431473'
p17
sS'myuid'
p18
S'3623327573'
p19
sS'YF-Ugrow-G0'
p20
S'169004153682ef91866609488943c77f'
p21
sS'WBtopGlobal_register_version'
p22
S'c23eaf9753653fc6'
p23
sS'YF-V5-G0'
p24
S'c948c7abbe2dbb5da556924587966312'
p25
sS'SINAGLOBAL'
p26
S'968399799894.5415.1424607979995'
p27
sS'Apache'
p28
S'9628097072709.352.1428730692543'
p29
sS'login_sid_t'
p30
S'30e34d355c424493e886ba365759d20d'
p31
sS'SUS'
p32
S'SID-3623327573-1428742288-GZ-z1sa9-63ac8f33e3a226353453bac20763dc63'
p33
sS'SSOLoginState'
p34
S'1428742288'
p35
sS'un'
p36
S'adoni1203@gmail.com'
p37
sS'_s_tentry'
p38
S'passport.weibo.com'
p39
sS'SUHB'
p40
S'0WGM0PvkidAWeR'
p41
s.