(dp1
S'SUE'
p2
S'es%3D17ef2b7c5ebd406370daa80b5f234f7b%26ev%3Dv1%26es2%3D730c06fc78ab1e8bdf49f657611426fd%26rs0%3DbKuDmzTTknuc0iH2shjkk8L1w4xRxTPyZIMbYJ08OelopWu2cpF16FwZZb4UlpTQi03QcIC%252FATkHjZvRPdFER3eRZHEKtXf%252F7UEEqEbZ1ahFl7sum4GWwYYnS%252F1gbxS%252F2CDhyzLIBLS8hc9J7imUASE9EO9jARx5MuILlCt09IM%253D%26rv%3D0'
p3
sS'SUB'
p4
S'_2A254DvTiDeTxGeNL7VER9y3JzDSIHXVbemEqrDV8PUNbu9BeLXjWkW8fvpHOlGOiIuEL6kqKZW0BWzO9TA..'
p5
sS'user_unver'
p6
S'8cfeb4a5760592c7e355532b0b11be01'
p7
sS'YF-V5-G0'
p8
S'a5a264208a5b5a42590274f52e6c7304'
p9
sS'SINAGLOBAL'
p10
S'4432786474935.71.1425888241997'
p11
sS'SUP'
p12
S'cv%3D1%26bt%3D1426752690%26et%3D1426839090%26d%3Dc909%26i%3D6063%26us%3D1%26vf%3D0%26vt%3D0%26ac%3D25%26st%3D0%26uid%3D5563073578%26name%3Dfeijiechiwo40quan%2540163.com%26nick%3D%25E9%25A3%259E%25E5%25A7%2590%25E5%2590%2583%25E6%2588%259140%25E6%258B%25B3%26fmp%3D%26lcp%3D'
p13
sS'user_active'
p14
S'201503191611'
p15
sS'SSOLoginState'
p16
S'1426752656'
p17
sS'YF-Page-G0'
p18
S'f0e89c46e7ea678e9f91d029ec552e92'
p19
sS'WBtopGlobal_register_version'
p20
S'56b492c83030fda6'
p21
sS'Apache'
p22
S'6167212587315.589.1426752024963'
p23
sS'_s_tentry'
p24
S'www.baidu.com'
p25
sS'SUBP'
p26
S'0033WrSXqPxfM725Ws9jqgMF55529P9D9WFY3KTx0gkGCZ2Q2oLfN_QH5JpX5Kzt'
p27
sS'wvr'
p28
S'6'
sS'ULV'
p29
S'1426752025048:4:4:1:6167212587315.589.1426752024963:1426037325419'
p30
sS'appkey'
p31
S''
sS'SUHB'
p32
S'0BL4IcgKjMJsnD'
p33
sS'ALF'
p34
S'1458288688'
p35
sS'myuid'
p36
S'5550449355'
p37
sS'YF-Ugrow-G0'
p38
S'bcf9d6eeb05f5fa151daa66289455f9b'
p39
sS'un'
p40
S'feijiechiwo39quan@163.com'
p41
sS'login_sid_t'
p42
S'8b41724e103d596c3cb8018ec40f0438'
p43
sS'SUS'
p44
S'SID-5563073578-1426752690-GZ-38bft-f4c52e503d0d1cb818348f6a37df6063'
p45
s.