(dp1
S'SUE'
p2
S'es%3D1a5e4a4f9732a42003befe3eb969d14f%26ev%3Dv1%26es2%3D5a616f7d79542b0c114a5c07be5693c1%26rs0%3DisCS53N55sfsADGo36JVGgPGDZxUOPq6KXtaESIh0bMK9RZRXq%252BHPswy9AL630fdtCAKAyu9EDc0uBYc5v4Zkg89kIIrJ6AGffDUeW58CwhxIP9Fh6SIdjgKIUfn%252BVH7%252BRRGAzvVu6pCe8RARJ5IMEgbdEjtjnZiJAHLAl0agqc%253D%26rv%3D0'
p3
sS'SUB'
p4
S'_2AkMjP5lha8NlrAZSnPwTyWjqaIRH-jyQ7F-XAn7uJhMyHRh87nsAqSU9F7TPe7eN4Eg0Eew8uEGiBMd-dw..'
p5
sS'SUBP'
p6
S'0033WrSXqPxfM725Ws9jqgMF55529P9D9WWMF-S0nqu97UhnwAe2RV8G5JpX5K2t'
p7
sS'YF-Page-G0'
p8
S'f70469e0b5607cacf38b47457e34254f'
p9
sS'ULV'
p10
S'1415778247059:10:7:2:3774758167564.869.1415778247001:1415606403157'
p11
sS'myuid'
p12
S'5342876280'
p13
sS'YF-Ugrow-G0'
p14
S'5b31332af1361e117ff29bb32e4d8439'
p15
sS'WBtopGlobal_register_version'
p16
S'fbfbfbcb9cac9bbd'
p17
sS'un'
p18
S'feijieshouwo2bai@163.com'
p19
sS'SINAGLOBAL'
p20
S'7734374171122.908.1414377016987'
p21
sS'YF-V5-G0'
p22
S'590253f9bb559fcb4f19c58020522401'
p23
sS'SUP'
p24
S'cv%3D1%26bt%3D1415779926%26et%3D1415866326%26d%3Dc909%26i%3Decae%26us%3D1%26vf%3D%26vt%3D%26ac%3D%26st%3D0%26uid%3D5344653849%26name%3Dfeijieshouwo13bai%2540163.com%26nick%3D%25E9%25A3%259E%25E5%25A7%2590%25E5%258F%2597%25E6%2588%259113%25E6%258B%259C%26fmp%3D%26lcp%3D'
p25
sS'Apache'
p26
S'3774758167564.869.1415778247001'
p27
sS'SUS'
p28
S'SID-5344653849-1415779926-JA-iqvyh-1d2e8ecfa380ad2506e4e67cba9f8569'
p29
sS'SSOLoginState'
p30
S'1415779926'
p31
sS'_s_tentry'
p32
S'us.weibo.com'
p33
s.