(dp1
S'UOR'
p2
S',,www.google.com.sg'
p3
sS'SUE'
p4
S'es%3Dbe289fded44ba3f2ca164c222444cc0f%26ev%3Dv1%26es2%3D000b3dab8af7505bd416ab3410ab8c49%26rs0%3DgmQLBhb14I5IQ7c89chwZ3XMRLKbn6x0rzz15%252BvLG4S5TVXeazyDyhrAcHBCeY4bcnXU4WVlT%252BPlH29GEhIyG1C%252FCfebLSW1R5TxB31dvYL59dxbc7TpK6wB7ysaQd6Tn%252B7i03Y6pRWZhywoDW6Fc17Z88d9J7GHVF1HHBlh7yk%253D%26rv%3D0'
p5
sS'SUB'
p6
S'_2A254IKkUDeTxGeRP6FcU-SnNyTmIHXVbV53crDV8PUNbuNBuLWyikW8xex7HAbYicnFsuyJw3AwkpxVZCw..'
p7
sS'YF-V5-G0'
p8
S'73b58b9e32dedf309da5103c77c3af4f'
p9
sS'SINAGLOBAL'
p10
S'4923967018257.826.1425265358995'
p11
sS'SUP'
p12
S'cv%3D1%26bt%3D1428478276%26et%3D1428564676%26d%3Dc909%26i%3Dccd7%26us%3D1%26vf%3D0%26vt%3D0%26ac%3D27%26st%3D0%26uid%3D2135597125%26name%3Dcatbear80%2540126.com%26nick%3D%25E7%2594%25A8%25E6%2588%25B72135597125%26fmp%3D%26lcp%3D'
p13
sS'SSOLoginState'
p14
S'1428478276'
p15
sS'YF-Page-G0'
p16
S'3ef19ae4f7a156b9290efe7e6e7d1a63'
p17
sS'Apache'
p18
S'721727686468.5118.1428152548099'
p19
sS'_s_tentry'
p20
S'login.sina.com.cn'
p21
sS'SUBP'
p22
S'0033WrSXqPxfM725Ws9jqgMF55529P9D9W5bzFqNXbDeki4lRzXk2GFY5JpX5K2t'
p23
sS'wvr'
p24
S'6'
sS'ULV'
p25
S'1428152548724:6:1:2:721727686468.5118.1428152548099:1427591190833'
p26
sS'__gads'
p27
S'ID'
p28
sS'appkey'
p29
S''
sS'SUHB'
p30
S'0sqQ8P1DSCMDjO'
p31
sS'ALF'
p32
S'1460014273'
p33
sS'myuid'
p34
S'1791135830'
p35
sS'YF-Ugrow-G0'
p36
S'69bfe9ce876ec10bd6de7dcebfb6883e'
p37
sS'un'
p38
S'catbear80@126.com'
p39
sS'login_sid_t'
p40
S'd0a46b790acedad0aee5695702377a7d'
p41
sS'SUS'
p42
S'SID-2135597125-1428478276-GZ-l38fs-0449207a0391220f0fcfe95614bcccd7'
p43
s.