(dp1
S'SUE'
p2
S'es%3D460718354cfb512b454f6e4d37abb30c%26ev%3Dv1%26es2%3D2dbaa0d5f2625bd971023013e4856416%26rs0%3DidLIIb0gqMhjJcLVKs8bPaEJAsNTizutvLd9zV6I8zV1FE5lnDixTs8L6y%252FfUSrf2Yo7jtFzGBhAXWYAbStGSTygL8W3gc0S8UScIO6xsSWpFSMWIqf6CAmOcK%252BTpRm3hcwlPROOWryxUgI5SVDJ200jk2VVKexT3HrMYp39HJs%253D%26rv%3D0'
p3
sS'SUB'
p4
S'_2A254HMEtDeTxGeNL7FQT8i_Eyj-IHXVba7XlrDV8PUNbu9BeLWTnkW8lk0wIAqtFp1h1H3JgTkjSmFyvbQ..'
p5
sS'user_unver'
p6
S'28fda51897e562b081d42f34c80c0df5'
p7
sS'YF-V5-G0'
p8
S'7e5f2eeeff969c4622401f2c56dc9e04'
p9
sS'SINAGLOBAL'
p10
S'4432786474935.71.1425888241997'
p11
sS'SUP'
p12
S'cv%3D1%26bt%3D1427681661%26et%3D1427768061%26d%3Dc909%26i%3D6063%26us%3D1%26vf%3D0%26vt%3D0%26ac%3D25%26st%3D0%26uid%3D5576221813%26name%3Dfeijiechiwo76quan%2540163.com%26nick%3D%25E9%25A3%259E%25E5%25A7%2590%25E5%2590%2583%25E6%2588%259176%25E6%258B%25B3%26fmp%3D%26lcp%3D'
p13
sS'user_active'
p14
S'201503301014'
p15
sS'SSOLoginState'
p16
S'1427681628'
p17
sS'YF-Page-G0'
p18
S'340a8661f2b409bf3ea4c8981c138854'
p19
sS'WBtopGlobal_register_version'
p20
S'56b492c83030fda6'
p21
sS'Apache'
p22
S'2520810605492.443.1427441020239'
p23
sS'_s_tentry'
p24
S'login.sina.com.cn'
p25
sS'__utmz'
p26
S'15428400.1427359191.1.1.utmcsr=weibo.com|utmccn=(referral)|utmcmd=referral|utmcct=/'
p27
sS'SUBP'
p28
S'0033WrSXqPxfM725Ws9jqgMF55529P9D9W5bxDjIxfyw3j4r6WX7Li0J5JpX5Kzt'
p29
sS'wvr'
p30
S'6'
sS'ULV'
p31
S'1427441020285:7:7:3:2520810605492.443.1427441020239:1427359057652'
p32
sS'WBStore'
p33
S'bf5c852d78c6d23c|undefined'
p34
sS'__utma'
p35
S'15428400.1284777743.1427359191.1427359191.1427359191.1'
p36
sS'appkey'
p37
S''
sS'SUHB'
p38
S'0d4ugl8--AJbq2'
p39
sS'ALF'
p40
S'1459217660'
p41
sS'myuid'
p42
S'5576220468'
p43
sS'YF-Ugrow-G0'
p44
S'169004153682ef91866609488943c77f'
p45
sS'un'
p46
S'feijiechiwo75quan@163.com'
p47
sS'login_sid_t'
p48
S'78fc19973ed98fb4d16ad39b0f939753'
p49
sS'SUS'
p50
S'SID-5576221813-1427681661-GZ-ln5jg-28232ff07dcc175dab3aa13928746063'
p51
s.