(dp1
S'SUE'
p2
S'es%3Df3b78c2eeadb12599df9f0937422c5c1%26ev%3Dv1%26es2%3Def5607bfaec37cd7279316d3973fccf3%26rs0%3DUl7Jn6yHizqXSfhlLF4Uao1l2XP7uEmFnA7pu6NAzWnNLGwG2nQI7QOeIyZLHEeNb1J6Kf%252BrgOLf9idXmsWve0TEnGNt8gLFfy3KEksN9SqS97TkUBU%252B5C966g%252Ft%252BFJcZLQgCIWkAXbJfErqGj%252Blc82xtrEeKfZKq%252FxUqs3x2yo%253D%26rv%3D0'
p3
sS'SUB'
p4
S'_2A254FKD0DeTxGeNL7FIW9S3LwzyIHXVbY5U8rDV8PUNbu9BeLU7jkW8Ec4w_IrP8AKFWNp8wo1GGLVR8Dg..'
p5
sS'user_unver'
p6
S'9bd71d817eeb6271b70707a03abe9719'
p7
sS'YF-V5-G0'
p8
S'a906819fa00f96cf7912e89aa1628751'
p9
sS'SINAGLOBAL'
p10
S'4432786474935.71.1425888241997'
p11
sS'SUP'
p12
S'cv%3D1%26bt%3D1427165348%26et%3D1427251748%26d%3Dc909%26i%3D6063%26us%3D1%26vf%3D0%26vt%3D0%26ac%3D25%26st%3D0%26uid%3D5570753780%26name%3Dfeijiechiwo64quan%2540163.com%26nick%3D%25E7%2594%25A8%25E6%2588%25B77165277675%26fmp%3D%26lcp%3D'
p13
sS'user_active'
p14
S'201503241049'
p15
sS'SSOLoginState'
p16
S'1427165329'
p17
sS'WB_register_version'
p18
S'56b492c83030fda6'
p19
sS'WBtopGlobal_register_version'
p20
S'56b492c83030fda6'
p21
sS'Apache'
p22
S'8661812169011.683.1427162988042'
p23
sS'_s_tentry'
p24
S'login.sina.com.cn'
p25
sS'SUBP'
p26
S'0033WrSXqPxfM725Ws9jqgMF55529P9D9W5j3X7YM3mdaegC32HmUPko5JpX5Kzt'
p27
sS'wvr'
p28
S'6'
sS'ULV'
p29
S'1427162988054:5:5:1:8661812169011.683.1427162988042:1426752025048'
p30
sS'appkey'
p31
S''
sS'SUHB'
p32
S'0YhB1Q4iJ30Ig3'
p33
sS'ALF'
p34
S'1458701347'
p35
sS'myuid'
p36
S'5571714289'
p37
sS'YF-Ugrow-G0'
p38
S'9e7ca4c96e5e7034874e5b22c95ae5e5'
p39
sS'un'
p40
S'feijiechiwo64quan@163.com'
p41
sS'login_sid_t'
p42
S'3ed704ec1dd9a1209c91a573eb72c949'
p43
sS'SUS'
p44
S'SID-5570753780-1427165348-GZ-c75ho-d7bda0bd759c388434b03a716ec76063'
p45
s.