(dp1
S'UOR'
p2
S',,login.sina.com.cn'
p3
sS'SUE'
p4
S'es%3Dba4989b1ee10305eb2c0994acce4f152%26ev%3Dv1%26es2%3D0c039e04cbe82cb1bfe54c69c66fa9c2%26rs0%3DLnHUCVGA2xennfGIpMKIosqwxy0bBnxguixAv1JkIy94pSRWO54X6YM4o7cL59CkbSPjS5gS3LwUWo55FtYdDbCENRoHF1vNkPCiEeOAh9UPtaiVl6a8TyV2be%252B%252BtL%252F4Vgb2SXKfn6wlmiknYSA8PD7byVMqwa5CWEX%252Fw%252BwKTWY%253D%26rv%3D0'
p5
sS'SUB'
p6
S'_2A254IXzpDeTxGeNL6FYX9yjPyTuIHXVbV-khrDV8PUNbuNBuLWjakW8V06SQPm486CSlxCV7GRF9YuoCfg..'
p7
sS'YF-V5-G0'
p8
S'73b58b9e32dedf309da5103c77c3af4f'
p9
sS'SINAGLOBAL'
p10
S'4923967018257.826.1425265358995'
p11
sS'SUP'
p12
S'cv%3D1%26bt%3D1428491449%26et%3D1428577849%26d%3Dc909%26i%3Dccd7%26us%3D1%26vf%3D0%26vt%3D0%26ac%3D27%26st%3D0%26uid%3D5534676327%26name%3Dbite13993%2540163.com%26nick%3D%25E6%2581%258B%25E7%25BD%2597%25E5%25BA%25B8%26fmp%3D%26lcp%3D2015-04-04%252007%253A45%253A19'
p13
sS'SSOLoginState'
p14
S'1428491449'
p15
sS'YF-Page-G0'
p16
S'3ef19ae4f7a156b9290efe7e6e7d1a63'
p17
sS'WBtopGlobal_register_version'
p18
S'56b492c83030fda6'
p19
sS'Apache'
p20
S'721727686468.5118.1428152548099'
p21
sS'_s_tentry'
p22
S'login.sina.com.cn'
p23
sS'SUBP'
p24
S'0033WrSXqPxfM725Ws9jqgMF55529P9D9WWigj5TfUP7fW2oyhdOSXaa5JpX5K2t'
p25
sS'wvr'
p26
S'6'
sS'ULV'
p27
S'1428152548724:6:1:2:721727686468.5118.1428152548099:1427591190833'
p28
sS'WBStore'
p29
S'bf5c852d78c6d23c|undefined'
p30
sS'__gads'
p31
S'ID'
p32
sS'appkey'
p33
S''
sS'SUHB'
p34
S'0A0ZhcFOZ2hZ-E'
p35
sS'ALF'
p36
S'225377291449'
p37
sS'myuid'
p38
S'5534676326'
p39
sS'YF-Ugrow-G0'
p40
S'69bfe9ce876ec10bd6de7dcebfb6883e'
p41
sS'un'
p42
S'tangcang082@163.com'
p43
sS'login_sid_t'
p44
S'd0a46b790acedad0aee5695702377a7d'
p45
sS'SUS'
p46
S'SID-5534676327-1428491449-GZ-or54w-2411855d78041e6c2c2f8063f085ccd7'
p47
s.