(dp1
S'SUE'
p2
S'es%3Dc745d60a14664d4dfc15ef2d8a0bbfa5%26ev%3Dv1%26es2%3D3c57b065e50b3950d94e93acfd0efef6%26rs0%3D5ghfMooQ6qiIho5ef07rD69jd7PwxVQjsjVDkjnYvgeRwSf6s48p11zZiYAiLEqha2zVzu50lsBGlrKM4zJomgs4aP36NStOgbrnYzp6m3WYmVmlnL6Q1VjiGEnIQgQHDgU7RLMDdesbs%252FmPSyqXiXWHT6ck0YlsIscHJ4oWZnI%253D%26rv%3D0'
p3
sS'SUB'
p4
S'_2AkMjP5qTa8NlrAZSnPwTyGLma45H-jyQ7F5lAn7uJhMyHRh77m41qSVm9AmCZjSx1MdZyboIITn-SYEVmw..'
p5
sS'SUBP'
p6
S'0033WrSXqPxfM725Ws9jqgMF55529P9D9WWKKEXLujaNjQVND-XTF6F35JpX5K2t'
p7
sS'YF-Page-G0'
p8
S'f70469e0b5607cacf38b47457e34254f'
p9
sS'ULV'
p10
S'1415778247059:10:7:2:3774758167564.869.1415778247001:1415606403157'
p11
sS'myuid'
p12
S'5344649155'
p13
sS'YF-Ugrow-G0'
p14
S'5b31332af1361e117ff29bb32e4d8439'
p15
sS'WBtopGlobal_register_version'
p16
S'fbfbfbcb9cac9bbd'
p17
sS'un'
p18
S'feijieshouwo2bai@163.com'
p19
sS'SINAGLOBAL'
p20
S'7734374171122.908.1414377016987'
p21
sS'YF-V5-G0'
p22
S'590253f9bb559fcb4f19c58020522401'
p23
sS'SUP'
p24
S'cv%3D1%26bt%3D1415779748%26et%3D1415866148%26d%3Dc909%26i%3Decae%26us%3D1%26vf%3D%26vt%3D%26ac%3D%26st%3D0%26uid%3D5344649473%26name%3Dfeijieshouwo11bai%2540163.com%26nick%3D%25E9%25A3%259E%25E5%25A7%2590%25E5%258F%2597%25E6%2588%259111%25E6%258B%259C%26fmp%3D%26lcp%3D'
p25
sS'Apache'
p26
S'3774758167564.869.1415778247001'
p27
sS'SUS'
p28
S'SID-5344649473-1415779748-XD-m8z3k-bc982ae9940ac757a2372fc3b8d38569'
p29
sS'SSOLoginState'
p30
S'1415779748'
p31
sS'_s_tentry'
p32
S'us.weibo.com'
p33
s.