(dp1
S'SUE'
p2
S'es%3D9edb6a62a38e2002b8bc3ec0caaf70b0%26ev%3Dv1%26es2%3D1d6fe45214e2bf69ebcfd0510bb2b22f%26rs0%3Da1HxT%252FMCbvPetNwajSj6G3Rt5v9pZWM7bhcOKZlDAW1lQcUdZNMMs%252Fr0vcj4Wrei2PqFO%252BvipAlWclaUpVCYYkhUULndWUzZcXTLhlpo4vlDn0kdipofKIyadXHN9DJfBLiQtF31qIItGiK2hpMjmPXUhpjk%252Fk3wa1TveJjq8sM%253D%26rv%3D0'
p3
sS'SUB'
p4
S'_2AkMjP5yya8NlrAZSnPody2_rZYtH-jyQ7FBEAn7uJhMyHRh77kowqSVc5lwrdNcwFfMi2d_wRKi57KE0zg..'
p5
sS'SUBP'
p6
S'0033WrSXqPxfM725Ws9jqgMF55529P9D9WFLls47EQxHzsnJzZm4paOG5JpX5K2t'
p7
sS'YF-Page-G0'
p8
S'f70469e0b5607cacf38b47457e34254f'
p9
sS'ULV'
p10
S'1415778247059:10:7:2:3774758167564.869.1415778247001:1415606403157'
p11
sS'myuid'
p12
S'5343109591'
p13
sS'YF-Ugrow-G0'
p14
S'5b31332af1361e117ff29bb32e4d8439'
p15
sS'WBtopGlobal_register_version'
p16
S'fbfbfbcb9cac9bbd'
p17
sS'un'
p18
S'feijieshouwo2bai@163.com'
p19
sS'SINAGLOBAL'
p20
S'7734374171122.908.1414377016987'
p21
sS'YF-V5-G0'
p22
S'590253f9bb559fcb4f19c58020522401'
p23
sS'SUP'
p24
S'cv%3D1%26bt%3D1415779205%26et%3D1415865605%26d%3Dc909%26i%3Decae%26us%3D1%26vf%3D%26vt%3D%26ac%3D%26st%3D0%26uid%3D5342874996%26name%3Dfeijieshouwo7bai%2540163.com%26nick%3D%25E9%25A3%259E%25E5%25A7%2590%25E5%258F%2597%25E6%2588%25917%25E6%258B%259C%26fmp%3D%26lcp%3D'
p25
sS'Apache'
p26
S'3774758167564.869.1415778247001'
p27
sS'SUS'
p28
S'SID-5342874996-1415779205-XD-0hlow-585eec98c5abbe893c57100ec6a37483'
p29
sS'SSOLoginState'
p30
S'1415779201'
p31
sS'_s_tentry'
p32
S'us.weibo.com'
p33
s.