(dp1
S'UOR'
p2
S',,login.sina.com.cn'
p3
sS'SUE'
p4
S'es%3Dd0553d27e8deecba1d98acf65a153352%26ev%3Dv1%26es2%3Dac11811de7f27f7ceaf082216f9bbb00%26rs0%3DKZe4tvhNJN53FQ%252F7003J4cqXMQVglmW0Kq7clDZXPxTyCI5UQjO4LQMuLAl4BHlO%252FPBdyzJcQ4HsWN0IhMfTon3MkDQCEW7hMb4A%252BRQGsxVvdA%252BJViZO9Is79yUv47piAL%252BXTxdZmAN8bERHJOEKo9hp7wyFMI5HHepQtmU98a4%253D%26rv%3D0'
p5
sS'SUB'
p6
S'_2A254IXkeDeTxGeNK41IT9C7Fyj2IHXVbV-3WrDV8PUNbuNBuLVmikW9CWRl0lhskaYj4TASBZZHdFb08og..'
p7
sS'YF-V5-G0'
p8
S'73b58b9e32dedf309da5103c77c3af4f'
p9
sS'SINAGLOBAL'
p10
S'4923967018257.826.1425265358995'
p11
sS'SUP'
p12
S'cv%3D1%26bt%3D1428490574%26et%3D1428576974%26d%3Dc909%26i%3Dccd7%26us%3D1%26vf%3D0%26vt%3D0%26ac%3D27%26st%3D0%26uid%3D5480240911%26name%3Dmozi05650%2540163.com%26nick%3D%25E5%25B9%25BC%25E8%25BE%25B1%25E4%25BC%25AF%26fmp%3D%26lcp%3D2015-04-04%252007%253A45%253A10'
p13
sS'SSOLoginState'
p14
S'1428490574'
p15
sS'YF-Page-G0'
p16
S'3ef19ae4f7a156b9290efe7e6e7d1a63'
p17
sS'WBtopGlobal_register_version'
p18
S'56b492c83030fda6'
p19
sS'Apache'
p20
S'721727686468.5118.1428152548099'
p21
sS'_s_tentry'
p22
S'login.sina.com.cn'
p23
sS'SUBP'
p24
S'0033WrSXqPxfM725Ws9jqgMF55529P9D9W5X-JdRbNVnWsCGwF0.aNYe5JpX5K2t'
p25
sS'wvr'
p26
S'6'
sS'ULV'
p27
S'1428152548724:6:1:2:721727686468.5118.1428152548099:1427591190833'
p28
sS'WBStore'
p29
S'bf5c852d78c6d23c|undefined'
p30
sS'__gads'
p31
S'ID'
p32
sS'appkey'
p33
S''
sS'SUHB'
p34
S'0P1cvW6GuaeQGS'
p35
sS'ALF'
p36
S'225377290574'
p37
sS'myuid'
p38
S'5534676317'
p39
sS'YF-Ugrow-G0'
p40
S'69bfe9ce876ec10bd6de7dcebfb6883e'
p41
sS'un'
p42
S'tangcang082@163.com'
p43
sS'login_sid_t'
p44
S'd0a46b790acedad0aee5695702377a7d'
p45
sS'SUS'
p46
S'SID-5480240911-1428490574-GZ-rfylz-90dd2f6410c964ed3b8de49df3a3ccd7'
p47
s.