(dp1
S'SUE'
p2
S'es%3D0ad62c0e216f2fe114e6bbad7b6db10f%26ev%3Dv1%26es2%3Dee7848a1a0b9ba6c13b51632a30ddd81%26rs0%3DdeT4pkteL7QDdw68M6NTaJXa8UQ0IrDYIp5BaiZNhaqc9bxWIJL8F3HmHexQFIPwz6NrzPzi0aDEt%252BsGS0rfbBhl51Ma2Ex%252Ba8RLgdps4p6gTcpkMEovrx6cjJ9TKloP3cTutnIQgWO92bRoKOgpyhqrHS2Oxm3UMgSl24g0HQY%253D%26rv%3D0'
p3
sS'SUB'
p4
S'_2A254IJw2DeTxGeNL6FsR-CnJyjSIHXVbV4r-rDV8PUNbuNBeLXPfkW-gfVrWYBY-UkKTOPpjNWMzybls3g..'
p5
sS'YF-V5-G0'
p6
S'69afb7c26160eb8b724e8855d7b705c6'
p7
sS'SINAGLOBAL'
p8
S'4432786474935.71.1425888241997'
p9
sS'SUP'
p10
S'cv%3D1%26bt%3D1428483174%26et%3D1428569574%26d%3Dc909%26i%3D6063%26us%3D1%26vf%3D0%26vt%3D0%26ac%3D27%26st%3D0%26uid%3D5539087518%26name%3Ditcxneuwoj69755%2540163.com%26nick%3D%25E6%258E%25A0%25E8%258D%2592%25E7%25A5%25A5%25E9%2587%258D%26fmp%3D%26lcp%3D2015-04-04%252007%253A45%253A44'
p11
sS'SSOLoginState'
p12
S'1428483174'
p13
sS'YF-Page-G0'
p14
S'fd1c2f5a1b1b0aec242690ee6b1d7f51'
p15
sS'WBtopGlobal_register_version'
p16
S'56b492c83030fda6'
p17
sS'Apache'
p18
S'3664370903279.6323.1428482455247'
p19
sS'_s_tentry'
p20
S'login.sina.com.cn'
p21
sS'__utmz'
p22
S'15428400.1427359191.1.1.utmcsr=weibo.com|utmccn=(referral)|utmcmd=referral|utmcct=/'
p23
sS'SUBP'
p24
S'0033WrSXqPxfM725Ws9jqgMF55529P9D9WFZCXYA1VIJRJEc3gq0rLMF5JpX5K2t'
p25
sS'wvr'
p26
S'6'
sS'ULV'
p27
S'1428482455287:10:3:1:3664370903279.6323.1428482455247:1428028173429'
p28
sS'__utma'
p29
S'15428400.1284777743.1427359191.1427359191.1427359191.1'
p30
sS'SUHB'
p31
S'0rrr-OwGlWzPHa'
p32
sS'ALF'
p33
S'1460019174'
p34
sS'myuid'
p35
S'5539087513'
p36
sS'YF-Ugrow-G0'
p37
S'ad06784f6deda07eea88e095402e4243'
p38
sS'un'
p39
S'itcxneuwoj69755@163.com'
p40
sS'login_sid_t'
p41
S'e630f9ef01f776cf74b14dd6dc4272bb'
p42
sS'SUS'
p43
S'SID-5539087518-1428483174-GZ-uzhlr-e368b55b43d72c754c80ae3257086063'
p44
s.