(dp1
S'SUE'
p2
S'es%3D34039adc678351036f0c1eab5c045803%26ev%3Dv1%26es2%3D3e808a255ef991607af9e3de41bf2ae5%26rs0%3DJ6127d9sNIyoiCMqpgAss%252BYXGpQtyxyYhv2496iVx00BYYPXlWVM%252F5%252F3aY7cQ7d9b%252Fpc7gN619PsZzTdTwqNjli7rf87esj5nacEsJ8CgfSY3YzrFRasr9rlfd%252Bdt2FPNSwCCYBTpvhu0RqdVwvow9WB6qkmv0zREOxQFWP6Z2Y%253D%26rv%3D0'
p3
sS'SUB'
p4
S'_2A254CVuzDeTxGeNL7VcT8SfFyD2IHXVbf8p7rDV8PUNbu9BeLWLYkW8xygI-490uJy9gw8jF2Tiv3rz2RA..'
p5
sS'user_unver'
p6
S'8d5c016585ee1b1d9af6717efa2884ce'
p7
sS'YF-V5-G0'
p8
S'a5a264208a5b5a42590274f52e6c7304'
p9
sS'SINAGLOBAL'
p10
S'4432786474935.71.1425888241997'
p11
sS'SUP'
p12
S'cv%3D1%26bt%3D1426926563%26et%3D1427012963%26d%3Dc909%26i%3D6063%26us%3D1%26vf%3D0%26vt%3D0%26ac%3D25%26st%3D0%26uid%3D5565219931%26name%3Dfeijiechiwo51quan%2540163.com%26nick%3D%25E9%25A3%259E%25E5%25A7%2590%25E5%2590%2583%25E6%2588%259151%25E6%258B%25B3%26fmp%3D%26lcp%3D'
p13
sS'user_active'
p14
S'201503211629'
p15
sS'SSOLoginState'
p16
S'1426926456'
p17
sS'YF-Page-G0'
p18
S'f0e89c46e7ea678e9f91d029ec552e92'
p19
sS'WBtopGlobal_register_version'
p20
S'56b492c83030fda6'
p21
sS'Apache'
p22
S'6167212587315.589.1426752024963'
p23
sS'_s_tentry'
p24
S'www.baidu.com'
p25
sS'SUBP'
p26
S'0033WrSXqPxfM725Ws9jqgMF55529P9D9WhP_1uN2wsQd37oTTzV20IR5JpX5Kzt'
p27
sS'wvr'
p28
S'6'
sS'ULV'
p29
S'1426752025048:4:4:1:6167212587315.589.1426752024963:1426037325419'
p30
sS'appkey'
p31
S''
sS'SUHB'
p32
S'0tK6iImLgzFzq7'
p33
sS'ALF'
p34
S'1458462562'
p35
sS'myuid'
p36
S'5565917449'
p37
sS'YF-Ugrow-G0'
p38
S'bcf9d6eeb05f5fa151daa66289455f9b'
p39
sS'un'
p40
S'feijiechiwo42quan@163.com'
p41
sS'login_sid_t'
p42
S'8b41724e103d596c3cb8018ec40f0438'
p43
sS'SUS'
p44
S'SID-5565219931-1426926563-GZ-fmq96-29c2ff20b7ff84afb8bf941bc2176063'
p45
s.