(dp1
S'SUE'
p2
S'es%3D196b03f48a6b75d8444181368c874127%26ev%3Dv1%26es2%3Df87a18655a065ce91de77810c623959a%26rs0%3DcBxSf1jgIoyu9kY13nTmaOnanyekd46BImNAlUMNQ82RQt4yzH4b2Yw6yjODHidr6fkiNXwvVMpDeJK1dQsk9WHMmupEJYE6o%252F88T4hDFJZAr3d98oilKVSxmz%252BEmvJ7pDyQw8WQrhE6C06UoavrN9egCik5tkHxhO4CxAtZaw0%253D%26rv%3D0'
p3
sS'SUB'
p4
S'_2A254FVilDeTxGeNL7FMV9ifMzz-IHXVbY81trDV8PUNbu9BeLWygkW8ISY9d7AN0p57lIN0OnvjfEA6gOA..'
p5
sS'user_unver'
p6
S'164d25bf89377dbf3aa925d3d52d627f'
p7
sS'YF-V5-G0'
p8
S'a906819fa00f96cf7912e89aa1628751'
p9
sS'SINAGLOBAL'
p10
S'4432786474935.71.1425888241997'
p11
sS'SUP'
p12
S'cv%3D1%26bt%3D1427187957%26et%3D1427274357%26d%3Dc909%26i%3D6063%26us%3D1%26vf%3D0%26vt%3D0%26ac%3D25%26st%3D0%26uid%3D5571469043%26name%3Dfeijiechiwo67quan%2540163.com%26nick%3D%25E9%25A3%259E%25E5%25A7%2590%25E5%2590%2583%25E6%2588%259167%25E6%258B%25B3%26fmp%3D%26lcp%3D'
p13
sS'user_active'
p14
S'201503241705'
p15
sS'SSOLoginState'
p16
S'1427187917'
p17
sS'WB_register_version'
p18
S'56b492c83030fda6'
p19
sS'WBtopGlobal_register_version'
p20
S'56b492c83030fda6'
p21
sS'Apache'
p22
S'8661812169011.683.1427162988042'
p23
sS'_s_tentry'
p24
S'login.sina.com.cn'
p25
sS'SUBP'
p26
S'0033WrSXqPxfM725Ws9jqgMF55529P9D9WW.2JjU.TnQ1zCkfg7mSTA75JpX5Kzt'
p27
sS'wvr'
p28
S'6'
sS'ULV'
p29
S'1427162988054:5:5:1:8661812169011.683.1427162988042:1426752025048'
p30
sS'appkey'
p31
S''
sS'SUHB'
p32
S'0gHyGwmH7XOuK9'
p33
sS'ALF'
p34
S'1458723956'
p35
sS'myuid'
p36
S'5571812135'
p37
sS'YF-Ugrow-G0'
p38
S'9e7ca4c96e5e7034874e5b22c95ae5e5'
p39
sS'un'
p40
S'feijiechiwo64quan@163.com'
p41
sS'login_sid_t'
p42
S'3ed704ec1dd9a1209c91a573eb72c949'
p43
sS'SUS'
p44
S'SID-5571469043-1427187957-GZ-l10e7-e43ea96bd98bc77023603f9fd67f6063'
p45
s.