(dp1
S'SUE'
p2
S'es%3Dd8cdc7354bad2ab0ddd9b1cefe103b5a%26ev%3Dv1%26es2%3Dbd925769269c059d97d9d646c4fb8646%26rs0%3DdfmqKm7E53Pz0n3WpyIFCEwI%252FXRjVsUQE043asvqwEzhau8owkrVt1Er1J7WzxZtOvSKaK3tcgfSzhVFobViUnIXzhY9dRzu0riFxbUXkxaAR0u7uBistLuhE231IJqEX558RmvaTIHMEW14X6beLEVMtwMPvihL466Sc9NNUPw%253D%26rv%3D0'
p3
sS'SUB'
p4
S'_2A254FKP7DeTxGeNL7FMQ8i_MyzSIHXVbY5IzrDV8PUNbu9BeLRjukW9NalR_2PCA4UJeefB9WhS4LHvbrg..'
p5
sS'user_unver'
p6
S'be34ae5398cc132db06e550fe331d505'
p7
sS'YF-V5-G0'
p8
S'a906819fa00f96cf7912e89aa1628751'
p9
sS'SINAGLOBAL'
p10
S'4432786474935.71.1425888241997'
p11
sS'SUP'
p12
S'cv%3D1%26bt%3D1427166123%26et%3D1427252523%26d%3Dc909%26i%3D6063%26us%3D1%26vf%3D0%26vt%3D0%26ac%3D25%26st%3D0%26uid%3D5571121008%26name%3Dfeijiechiwo65quan%2540163.com%26nick%3D%25E9%25A3%259E%25E5%25A7%2590%25E5%2590%2583%25E6%2588%259165%25E6%258B%25B3%26fmp%3D%26lcp%3D'
p13
sS'user_active'
p14
S'201503241102'
p15
sS'SSOLoginState'
p16
S'1427166088'
p17
sS'WB_register_version'
p18
S'56b492c83030fda6'
p19
sS'WBtopGlobal_register_version'
p20
S'56b492c83030fda6'
p21
sS'Apache'
p22
S'8661812169011.683.1427162988042'
p23
sS'_s_tentry'
p24
S'login.sina.com.cn'
p25
sS'SUBP'
p26
S'0033WrSXqPxfM725Ws9jqgMF55529P9D9WFiPLp__Mc1wSTx4PvKB-qi5JpX5Kzt'
p27
sS'wvr'
p28
S'6'
sS'ULV'
p29
S'1427162988054:5:5:1:8661812169011.683.1427162988042:1426752025048'
p30
sS'appkey'
p31
S''
sS'SUHB'
p32
S'0id7erTjwuOZ8g'
p33
sS'ALF'
p34
S'1458702122'
p35
sS'myuid'
p36
S'5570753780'
p37
sS'YF-Ugrow-G0'
p38
S'9e7ca4c96e5e7034874e5b22c95ae5e5'
p39
sS'un'
p40
S'feijiechiwo64quan@163.com'
p41
sS'login_sid_t'
p42
S'3ed704ec1dd9a1209c91a573eb72c949'
p43
sS'SUS'
p44
S'SID-5571121008-1427166123-GZ-19so5-48477681c318c76b984c4e1c9d1b6063'
p45
s.