(dp1
S'SUE'
p2
S'es%3Db1edd18cf6f2ede80bfc1d4f79e552d7%26ev%3Dv1%26es2%3D3e0547fc0eb923690aac35f885053b7c%26rs0%3DFhJ8X341YSxT1DEOuxisp9KFIhP2vSOmmJVvCpshwQT4f9MuIWYvbRZlJoZLTbbH18XGyQlJH395sOSSerw2Yn2%252BMXWlJrstp1Z9pGIMGc620B3iSQyrU9qWe9afqAI2sD7j2lOuRFA%252BK7bhvFuNuSawcdxdZWIiDRcCKDZD%252FqU%253D%26rv%3D0'
p3
sS'SUB'
p4
S'_2A254FVbADeTxGeNL7FMZ8SzNyDmIHXVbY88IrDV8PUNbu9BeLVamkW9jNgqKqD9ZqYmJm-hQQP3kwoYp5Q..'
p5
sS'user_unver'
p6
S'7ca3d27b82b2a6926d3629c345771165'
p7
sS'YF-V5-G0'
p8
S'a906819fa00f96cf7912e89aa1628751'
p9
sS'SINAGLOBAL'
p10
S'4432786474935.71.1425888241997'
p11
sS'SUP'
p12
S'cv%3D1%26bt%3D1427187344%26et%3D1427273744%26d%3Dc909%26i%3D6063%26us%3D1%26vf%3D0%26vt%3D0%26ac%3D25%26st%3D0%26uid%3D5571812135%26name%3Dfeijiechiwo66quan%2540163.com%26nick%3D%25E9%25A3%259E%25E5%25A7%2590%25E5%2590%2583%25E6%2588%259166%25E6%258B%25B3%26fmp%3D%26lcp%3D'
p13
sS'user_active'
p14
S'201503241655'
p15
sS'SSOLoginState'
p16
S'1427187279'
p17
sS'WB_register_version'
p18
S'56b492c83030fda6'
p19
sS'WBtopGlobal_register_version'
p20
S'56b492c83030fda6'
p21
sS'Apache'
p22
S'8661812169011.683.1427162988042'
p23
sS'_s_tentry'
p24
S'login.sina.com.cn'
p25
sS'SUBP'
p26
S'0033WrSXqPxfM725Ws9jqgMF55529P9D9WhKkYz-p5BkzCOXEHjEzhi.5JpX5Kzt'
p27
sS'wvr'
p28
S'6'
sS'ULV'
p29
S'1427162988054:5:5:1:8661812169011.683.1427162988042:1426752025048'
p30
sS'appkey'
p31
S''
sS'SUHB'
p32
S'0laVlY-Ndbkueo'
p33
sS'ALF'
p34
S'1458723342'
p35
sS'myuid'
p36
S'5571121008'
p37
sS'YF-Ugrow-G0'
p38
S'9e7ca4c96e5e7034874e5b22c95ae5e5'
p39
sS'un'
p40
S'feijiechiwo64quan@163.com'
p41
sS'login_sid_t'
p42
S'3ed704ec1dd9a1209c91a573eb72c949'
p43
sS'SUS'
p44
S'SID-5571812135-1427187344-GZ-q0chp-fb27c491a9ad9040c1cf81ad7c196063'
p45
s.