(dp1
S'UOR'
p2
S',,login.sina.com.cn'
p3
sS'SUE'
p4
S'es%3D71c5b10c23a312467d2c952b774f2415%26ev%3Dv1%26es2%3Def1c8ba6d4b6c3c99f212ab60143350c%26rs0%3Dk%252F4HAiSAcyjZPZT9VQpJZQ%252FHIfq4ztwwWtuWVl5sOhdSFrlGu49ElPQ%252B2quOz%252BP%252F9TxA4MojqZYoaipxTa2fBe3IjNyTOV9VlyIVBKdqGHFFMq158PoyhFoun1%252FtUXp6hdIRPZqmfslXD06lP0g5bTgPDfRwMJ1IsXoqyq6wnVw%253D%26rv%3D0'
p5
sS'SUB'
p6
S'_2A254IIPsDeTxGeNK41IV9i_LyDiIHXVbV_IkrDV8PUNbuNBuLVX5kW87_2xbck009BcaMpvWxMG3LthVeQ..'
p7
sS'YF-V5-G0'
p8
S'73b58b9e32dedf309da5103c77c3af4f'
p9
sS'SINAGLOBAL'
p10
S'4923967018257.826.1425265358995'
p11
sS'SUP'
p12
S'cv%3D1%26bt%3D1428485052%26et%3D1428571452%26d%3Dc909%26i%3Dccd7%26us%3D1%26vf%3D0%26vt%3D0%26ac%3D27%26st%3D0%26uid%3D5480461734%26name%3Dliaokanqichuang%2540163.com%26nick%3D%25E7%25A9%2597%25E6%258C%2581%25E6%2584%259A%25E6%2597%25AC%26fmp%3D%26lcp%3D2015-04-04%252007%253A44%253A48'
p13
sS'SSOLoginState'
p14
S'1428485052'
p15
sS'YF-Page-G0'
p16
S'3ef19ae4f7a156b9290efe7e6e7d1a63'
p17
sS'WBtopGlobal_register_version'
p18
S'56b492c83030fda6'
p19
sS'Apache'
p20
S'721727686468.5118.1428152548099'
p21
sS'_s_tentry'
p22
S'login.sina.com.cn'
p23
sS'SUBP'
p24
S'0033WrSXqPxfM725Ws9jqgMF55529P9D9WWX4OlMq_0.Q9Kx5LZDkDnz5JpX5K2t'
p25
sS'wvr'
p26
S'6'
sS'ULV'
p27
S'1428152548724:6:1:2:721727686468.5118.1428152548099:1427591190833'
p28
sS'WBStore'
p29
S'bf5c852d78c6d23c|undefined'
p30
sS'__gads'
p31
S'ID'
p32
sS'appkey'
p33
S''
sS'SUHB'
p34
S'0xnShrFwtl2Vbq'
p35
sS'ALF'
p36
S'225377285052'
p37
sS'myuid'
p38
S'5480461733'
p39
sS'YF-Ugrow-G0'
p40
S'69bfe9ce876ec10bd6de7dcebfb6883e'
p41
sS'un'
p42
S'tangcang082@163.com'
p43
sS'login_sid_t'
p44
S'd0a46b790acedad0aee5695702377a7d'
p45
sS'SUS'
p46
S'SID-5480461734-1428485052-GZ-ps1fu-f9e95ec3a0e548c92cbffe0ee872ccd7'
p47
s.