(dp1
S'SUE'
p2
S'es%3D06463b2c29b4cefff3482aeb543fa3ac%26ev%3Dv1%26es2%3Df86a4e8882bb44cbefafbc905376aa9c%26rs0%3DnwluiX2x9YPU%252BFsTXmOY0ZrtUqF52WIXNxy547Oa7NS5RhlZ%252FN%252F9YODOrDwN%252Fs7zrsSNIjTpcMLVht1QfGPSdzpH378EyvwkWkGqXNNE%252F4XCf4mjoRsICH2EVeGL2zEZ0BasUcJu%252BtxTj6ZfR8%252B1S404kI%252Bn1PutHOwZu0ZJDWM%253D%26rv%3D0'
p3
sS'SUB'
p4
S'_2A254FRHRDeTxGeNL7FMU8ibEyzmIHXVbYwQZrDV8PUNbuNBeLXX2kW8yVmKitzvcn3ftNZPSvNt3j9mV8w..'
p5
sS'user_unver'
p6
S'852b3109a6848b49052087e69eb3ccc7'
p7
sS'YF-V5-G0'
p8
S'a906819fa00f96cf7912e89aa1628751'
p9
sS'SINAGLOBAL'
p10
S'4432786474935.71.1425888241997'
p11
sS'SUP'
p12
S'cv%3D1%26bt%3D1427202433%26et%3D1427288833%26d%3Dc909%26i%3D6063%26us%3D1%26vf%3D0%26vt%3D0%26ac%3D25%26st%3D0%26uid%3D5571528805%26name%3Dfeijiechiwo69quan%2540163.com%26nick%3D%25E7%2594%25A8%25E6%2588%25B77202128083%26fmp%3D%26lcp%3D2015-03-24%252021%253A06%253A58'
p13
sS'user_active'
p14
S'201503242035'
p15
sS'SSOLoginState'
p16
S'1427202426'
p17
sS'YF-Page-G0'
p18
S'324e50a7d7f9947b6aaff9cb1680413f'
p19
sS'WB_register_version'
p20
S'56b492c83030fda6'
p21
sS'WBtopGlobal_register_version'
p22
S'56b492c83030fda6'
p23
sS'Apache'
p24
S'8661812169011.683.1427162988042'
p25
sS'_s_tentry'
p26
S'login.sina.com.cn'
p27
sS'SUBP'
p28
S'0033WrSXqPxfM725Ws9jqgMF55529P9D9WWiFYLR0.4anLIXApD5OczU5JpX5K2t'
p29
sS'wvr'
p30
S'6'
sS'ULV'
p31
S'1427162988054:5:5:1:8661812169011.683.1427162988042:1426752025048'
p32
sS'appkey'
p33
S''
sS'SUHB'
p34
S'00x5DbOLe0KlRg'
p35
sS'ALF'
p36
S'1458738432'
p37
sS'YF-Ugrow-G0'
p38
S'9e7ca4c96e5e7034874e5b22c95ae5e5'
p39
sS'un'
p40
S'feijiechiwo69quan@163.com'
p41
sS'login_sid_t'
p42
S'3ed704ec1dd9a1209c91a573eb72c949'
p43
sS'SUS'
p44
S'SID-5571528805-1427202433-GZ-6ja17-604ae364f3752ff13e84099e958e6063'
p45
s.