(dp1
S'YF-V5-G0'
p2
S'69afb7c26160eb8b724e8855d7b705c6'
p3
sS'SUE'
p4
S'es%3D2712191a5c296118a70999516b3e4ad5%26ev%3Dv1%26es2%3D5ba66e4783dcdbc76ec69b65a87f16d6%26rs0%3Daqz6f6wy0nJ8%252B9rajXCzOKiB7Yi1cwovUPoMIG6syPbGuol%252B4QvyiBi%252BxCPPsNU2rrujMhygW1ySq1sncMGo4WTwPbu8Rgq5VpnglO0mCRUIq2z12FTL62Vmh8iK6f0Wa5YssxqrUVqHtfhXyqLLjAhiKU09nreYtkqrXuN4t9w%253D%26rv%3D0'
p5
sS'SUB'
p6
S'_2A254IJsHDeTxGeNL6FsR-CnJyjyIHXVbV4vPrDV8PUJbuNANLUflkW9A03JCDwrPlRSiD4nnC1XmZLMPlw..'
p7
sS'SUBP'
p8
S'0033WrSXqPxfM725Ws9jqgMF55529P9D9WhSN2WFWaU7-CxQ3LEcIH7l5JpX5K2t'
p9
sS'YF-Page-G0'
p10
S'fd1c2f5a1b1b0aec242690ee6b1d7f51'
p11
sS'ALF'
p12
S'0'
sS'__utma'
p13
S'15428400.1284777743.1427359191.1427359191.1427359191.1'
p14
sS'ULV'
p15
S'1428482455287:10:3:1:3664370903279.6323.1428482455247:1428028173429'
p16
sS'SUHB'
p17
S'0XD1zD8Jpu9tM-'
p18
sS'myuid'
p19
S'5539087512'
p20
sS'login_sid_t'
p21
S'e630f9ef01f776cf74b14dd6dc4272bb'
p22
sS'WBtopGlobal_register_version'
p23
S'56b492c83030fda6'
p24
sS'un'
p25
S'lianpingdaoluxi@163.com'
p26
sS'SINAGLOBAL'
p27
S'4432786474935.71.1425888241997'
p28
sS'YF-Ugrow-G0'
p29
S'ad06784f6deda07eea88e095402e4243'
p30
sS'SUP'
p31
S'cv%3D1%26bt%3D1428482903%26et%3D1428569303%26d%3Dc909%26i%3Daa31%26us%3D1%26vf%3D1%26vt%3D2%26ac%3D27%26st%3D0%26uid%3D5539087510%26name%3Dmeijian1331311%2540163.com%26nick%3D%25E8%258E%25B2%25E5%258D%2597%25E7%2585%258E%26fmp%3D%26lcp%3D2015-04-04%252007%253A45%253A35'
p32
sS'Apache'
p33
S'3664370903279.6323.1428482455247'
p34
sS'SUS'
p35
S'SID-5539087510-1428482903-JA-zs6dt-963c0e2fddb7473fdbb413cd92559f05'
p36
sS'_s_tentry'
p37
S'login.sina.com.cn'
p38
sS'__utmz'
p39
S'15428400.1427359191.1.1.utmcsr=weibo.com|utmccn=(referral)|utmcmd=referral|utmcct=/'
p40
s.