(dp1
S'UOR'
p2
S',,login.sina.com.cn'
p3
sS'SUE'
p4
S'es%3D1a0ca7107df8dd6bf0315663f2448f69%26ev%3Dv1%26es2%3Df24802b8a31d834fae2bdda41289259b%26rs0%3DUuLr1tT1eUDs%252B%252F99obwTZA94I47TvzBzPsT7EH0oLlFU3j57xuIi1jSRJuyFFij1eg6VZu7cS1A8jFshNb3vJEbIt8wpXrSGzH5lBOv5VpS6oHDAPzL%252BJd9gGUfRMGWCLOAeEaDmA6KFPFqHjTm%252FKVMJSFlubLgZHSJqeLA2vlI%253D%26rv%3D0'
p5
sS'SUB'
p6
S'_2A254IIjEDeTxGeNL6FsR-CnIwzyIHXVbV_0MrDV8PUNbuNBuLXHGkW9XgqoNnZh8CY1a_uXQClyiHzNurw..'
p7
sS'YF-V5-G0'
p8
S'73b58b9e32dedf309da5103c77c3af4f'
p9
sS'SINAGLOBAL'
p10
S'4923967018257.826.1425265358995'
p11
sS'SUP'
p12
S'cv%3D1%26bt%3D1428486292%26et%3D1428572692%26d%3Dc909%26i%3Dccd7%26us%3D1%26vf%3D0%26vt%3D0%26ac%3D27%26st%3D0%26uid%3D5539087480%26name%3Dtongqiao999113%2540163.com%26nick%3D%25E6%2592%259E%25E6%25B4%25BE%25E7%259A%2586%25E5%25B0%259A%25E7%2588%25B1%26fmp%3D%26lcp%3D2015-04-04%252007%253A44%253A59'
p13
sS'SSOLoginState'
p14
S'1428486292'
p15
sS'YF-Page-G0'
p16
S'3ef19ae4f7a156b9290efe7e6e7d1a63'
p17
sS'WBtopGlobal_register_version'
p18
S'56b492c83030fda6'
p19
sS'Apache'
p20
S'721727686468.5118.1428152548099'
p21
sS'_s_tentry'
p22
S'login.sina.com.cn'
p23
sS'SUBP'
p24
S'0033WrSXqPxfM725Ws9jqgMF55529P9D9W5QmEBVrOkpNG6LubS2YJgn5JpX5K2t'
p25
sS'wvr'
p26
S'6'
sS'ULV'
p27
S'1428152548724:6:1:2:721727686468.5118.1428152548099:1427591190833'
p28
sS'WBStore'
p29
S'bf5c852d78c6d23c|undefined'
p30
sS'__gads'
p31
S'ID'
p32
sS'appkey'
p33
S''
sS'SUHB'
p34
S'0eb9KzAxxGxD03'
p35
sS'ALF'
p36
S'225377286292'
p37
sS'myuid'
p38
S'5539087477'
p39
sS'YF-Ugrow-G0'
p40
S'69bfe9ce876ec10bd6de7dcebfb6883e'
p41
sS'un'
p42
S'tangcang082@163.com'
p43
sS'login_sid_t'
p44
S'd0a46b790acedad0aee5695702377a7d'
p45
sS'SUS'
p46
S'SID-5539087480-1428486292-GZ-le4fc-8e5784324189003df83202c53b68ccd7'
p47
s.