(dp1
S'wvr'
p2
S'6'
sS'UOR'
p3
S'developer.51cto.com,widget.weibo.com,login.sina.com.cn'
p4
sS'SUE'
p5
S'es%3Dee31b70b10756616947c114151282086%26ev%3Dv1%26es2%3D60e5c749a7e2f076c6d4cded09b64f28%26rs0%3D1dz09d0BCVGvHQvxO9iI3Wf4Oe3vehovuas1sWSvpEJHMR8MWg3pip6ArgVTMxJuIA889nQxmEBUkq49DFzf3nZSI8kgN6bKNfK8NqJgARnzyITmUKKnAQ2yTpJME5JtQXrDX9qfLrniSurPqjhu2V9EfOUBqihVKlcJGEqNt5U%253D%26rv%3D0'
p6
sS'SUB'
p7
S'_2A254KxvGDeTxGeVI6VES8inJzD-IHXVbQQoOrDV8PUNbuNBuLXCnkW8dzpkjYzkjwrnUZ5uFIdLR3zbfjw..'
p8
sS'SUBP'
p9
S'0033WrSXqPxfM725Ws9jqgMF55529P9D9WWiboX8wfKgK0n9XqLh8hsI5JpX5K2t'
p10
sS'ALF'
p11
S'1460707093'
p12
sS'SUP'
p13
S'cv%3D1%26bt%3D1429171094%26et%3D1429257494%26d%3Dc909%26i%3D6063%26us%3D1%26vf%3D0%26vt%3D0%26ac%3D25%26st%3D0%26uid%3D3623327573%26name%3Dadoni1203%2540gmail.com%26nick%3D%25E5%25AD%2599%25E6%2599%2593%25E9%25A3%259E-Adoni%26fmp%3D%26lcp%3D'
p14
sS'ULV'
p15
S'1429171063808:15:5:1:169674358330.66702.1429171063801:1428730692550'
p16
sS'myuid'
p17
S'5539087514'
p18
sS'YF-Ugrow-G0'
p19
S'b02489d329584fca03ad6347fc915997'
p20
sS'un'
p21
S'adoni1203@gmail.com'
p22
sS'SINAGLOBAL'
p23
S'968399799894.5415.1424607979995'
p24
sS'YF-V5-G0'
p25
S'c072c6ac12a0526ff9af4f0716396363\n'
p26
sS'Apache'
p27
S'169674358330.66702.1429171063801'
p28
sS'login_sid_t'
p29
S'460170014e67a2b82a55e8372a5728c9'
p30
sS'SUS'
p31
S'SID-3623327573-1429171094-GZ-g7vu6-bb7fef865470e8db649d975e987b6063'
p32
sS'SSOLoginState'
p33
S'1429171094'
p34
sS'_s_tentry'
p35
S'-'
sS'SUHB'
p36
S'0OM0K1qNCMIVKr'
p37
s.