(dp1
S'SUE'
p2
S'es%3D11e8a6a614d7ac9abcc91cc6eb7e30f4%26ev%3Dv1%26es2%3D36e84b587a5ab05f2405a669e97345a3%26rs0%3DoadQ7qSAELNavutXZ%252F2FP8b20ddnK5UyPrcnFbz8oUKe0RWBhsh4Bxde5UIaz01e1sRRb16B7Z2Iw4wGBf%252Fl38D8DTryTVb8GU5W6nK5ayMbHUu7CocXkXeBScpv2Igj6gW0h6dqKMhPZC0%252F2cS6BpifGIRvwKYVvuoDhzVM94M%253D%26rv%3D0'
p3
sS'SUB'
p4
S'_2A254D_JpDeTxGeNL7VYX9SjKyz-IHXVbfWShrDV8PUNbu9BeLW73kW99-8vbZ7er0mtu1zYUfjU3qKeBJw..'
p5
sS'user_unver'
p6
S'b2dd4a999940a989e1d90a1db26af18d'
p7
sS'YF-V5-G0'
p8
S'a5a264208a5b5a42590274f52e6c7304'
p9
sS'SINAGLOBAL'
p10
S'4432786474935.71.1425888241997'
p11
sS'SUP'
p12
S'cv%3D1%26bt%3D1426817593%26et%3D1426903993%26d%3Dc909%26i%3D6063%26us%3D1%26vf%3D0%26vt%3D0%26ac%3D25%26st%3D0%26uid%3D5564656603%26name%3Dfeijiechiwo46quan%2540163.com%26nick%3D%25E9%25A3%259E%25E5%25A7%2590%25E5%2590%2583%25E6%2588%259146%25E6%258B%25B3%26fmp%3D%26lcp%3D'
p13
sS'user_active'
p14
S'201503201013'
p15
sS'SSOLoginState'
p16
S'1426817558'
p17
sS'YF-Page-G0'
p18
S'f0e89c46e7ea678e9f91d029ec552e92'
p19
sS'WBtopGlobal_register_version'
p20
S'56b492c83030fda6'
p21
sS'Apache'
p22
S'6167212587315.589.1426752024963'
p23
sS'_s_tentry'
p24
S'www.baidu.com'
p25
sS'SUBP'
p26
S'0033WrSXqPxfM725Ws9jqgMF55529P9D9WWZpbVw99p.lbUBcPJ9T9kj5JpX5Kzt'
p27
sS'wvr'
p28
S'6'
sS'ULV'
p29
S'1426752025048:4:4:1:6167212587315.589.1426752024963:1426037325419'
p30
sS'appkey'
p31
S''
sS'SUHB'
p32
S'0rrr-aZFwD09f5'
p33
sS'ALF'
p34
S'1458353592'
p35
sS'myuid'
p36
S'5563425522'
p37
sS'YF-Ugrow-G0'
p38
S'bcf9d6eeb05f5fa151daa66289455f9b'
p39
sS'un'
p40
S'feijiechiwo42quan@163.com'
p41
sS'login_sid_t'
p42
S'8b41724e103d596c3cb8018ec40f0438'
p43
sS'SUS'
p44
S'SID-5564656603-1426817593-GZ-x9l17-d3118bb273c5e1b1a5cb370f80cf6063'
p45
s.