(dp1
S'SUE'
p2
S'es%3D91e811d80a29b988eccf4dc0be288f29%26ev%3Dv1%26es2%3D3851b3af468b03377b4f8e420eeae8a9%26rs0%3D1WmELN24JP1KrXPdh3xwB3ZlUDd%252BrkLFS%252FZkIx8nRu5uF%252F4LZDO3z4ScZ1O8e7z%252F7XBZPpaxc0SS5wYqlO0OKX4zi8i5a52HQNWTeEV3i3AHCGwovfxN2vi6Kx9pGBKiT4zOAY49lh233ukpfYG%252B1YPUkDy56xh97nQxmaR0cUw%253D%26rv%3D0'
p3
sS'SUB'
p4
S'_2AkMjP5sVa8NlrAZSnPwTyGPrbotH-jyQ7FHjAn7uJhMyHRh87kgtqSW7cFmdd2PUxYU7UJfZHxU2RHK6xA..'
p5
sS'SUBP'
p6
S'0033WrSXqPxfM725Ws9jqgMF55529P9D9W50XnaCVzhu8Hxh3_X0h-BN5JpX5K2t'
p7
sS'YF-Page-G0'
p8
S'f70469e0b5607cacf38b47457e34254f'
p9
sS'ULV'
p10
S'1415778247059:10:7:2:3774758167564.869.1415778247001:1415606403157'
p11
sS'myuid'
p12
S'5344648695'
p13
sS'YF-Ugrow-G0'
p14
S'5b31332af1361e117ff29bb32e4d8439'
p15
sS'WBtopGlobal_register_version'
p16
S'fbfbfbcb9cac9bbd'
p17
sS'un'
p18
S'feijieshouwo2bai@163.com'
p19
sS'SINAGLOBAL'
p20
S'7734374171122.908.1414377016987'
p21
sS'YF-V5-G0'
p22
S'590253f9bb559fcb4f19c58020522401'
p23
sS'SUP'
p24
S'cv%3D1%26bt%3D1415779362%26et%3D1415865762%26d%3Dc909%26i%3Decae%26us%3D1%26vf%3D%26vt%3D%26ac%3D%26st%3D0%26uid%3D5344648926%26name%3Dfeijieshouwo9bai%2540163.com%26nick%3D%25E9%25A3%259E%25E5%25A7%2590%25E5%258F%2597%25E6%2588%25919%25E6%258B%259C%26fmp%3D%26lcp%3D'
p25
sS'Apache'
p26
S'3774758167564.869.1415778247001'
p27
sS'SUS'
p28
S'SID-5344648926-1415779362-JA-mhfyu-46915a6ce67c044ad4e9dd5d78a48569'
p29
sS'SSOLoginState'
p30
S'1415779362'
p31
sS'_s_tentry'
p32
S'us.weibo.com'
p33
s.