(dp1
S'SUE'
p2
S'es%3Df8273a2d0536d8687105b8350726d7f1%26ev%3Dv1%26es2%3Db0ff2a5b93e364e0a3e61386082268fe%26rs0%3De9NExBi14JZjYjkW1lRvWalomcAy08nUD1YHzNaAN1Eoh9MQxfpAcYLy1d0cGJg1KLOJuxznXf7Wiv96J3gkNry7zDoe%252BrDAjcULr7Xa2OFTzvQqyzWkjwi8sbRP8a%252Bbt9smq525ObjLcHYwHY%252FFYYGhqs4I6CMk6lvyOIenkHU%253D%26rv%3D0'
p3
sS'SUB'
p4
S'_2A254DuGNDeTxGeNL7VEX9SjOyzWIHXVbelRFrDV8PUNbuNBeLWPSkW8Np58htZuO7WLMfKdFYhz6tgTCrA..'
p5
sS'user_unver'
p6
S'16b565f4d8ac15c342ac321bd387d123'
p7
sS'YF-V5-G0'
p8
S'a5a264208a5b5a42590274f52e6c7304'
p9
sS'SINAGLOBAL'
p10
S'4432786474935.71.1425888241997'
p11
sS'SUP'
p12
S'cv%3D1%26bt%3D1426756061%26et%3D1426842461%26d%3Dc909%26i%3D6063%26us%3D1%26vf%3D0%26vt%3D0%26ac%3D25%26st%3D0%26uid%3D5563656209%26name%3Dfeijiechiwo42quan%2540163.com%26nick%3D%25E9%25A3%259E%25E5%25A7%2590%25E5%2590%2583%25E6%2588%259142%25E6%258B%25B3%26fmp%3D%26lcp%3D'
p13
sS'user_active'
p14
S'201503191706'
p15
sS'SSOLoginState'
p16
S'1426756061'
p17
sS'YF-Page-G0'
p18
S'f0e89c46e7ea678e9f91d029ec552e92'
p19
sS'WBtopGlobal_register_version'
p20
S'56b492c83030fda6'
p21
sS'Apache'
p22
S'6167212587315.589.1426752024963'
p23
sS'_s_tentry'
p24
S'www.baidu.com'
p25
sS'SUBP'
p26
S'0033WrSXqPxfM725Ws9jqgMF55529P9D9WWvG9vQ464zFxfhIS5SICUR5JpX5K2t'
p27
sS'ULV'
p28
S'1426752025048:4:4:1:6167212587315.589.1426752024963:1426037325419'
p29
sS'appkey'
p30
S''
sS'SUHB'
p31
S'0OM0ZdfjLZDkdn'
p32
sS'ALF'
p33
S'1427360861'
p34
sS'myuid'
p35
S'5563647825'
p36
sS'YF-Ugrow-G0'
p37
S'bcf9d6eeb05f5fa151daa66289455f9b'
p38
sS'un'
p39
S'feijiechiwo42quan@163.com'
p40
sS'login_sid_t'
p41
S'8b41724e103d596c3cb8018ec40f0438'
p42
sS'SUS'
p43
S'SID-5563656209-1426756061-GZ-x59ch-a0382652a91220131dd10e215ff16063'
p44
s.