(dp1
S'wvr'
p2
S'6'
sS'SUE'
p3
S'es%3D396556943d8a07755a2a613e56b0561d%26ev%3Dv1%26es2%3D9b086ca69f1be1285af394b2cdaabe36%26rs0%3DTkP4ex7QCdSSuu45gbFRdmyyFz1p4HIYKC5BGg1ozPX%252FtpLCE8EKs1AG5ypsNUbLQjbdAuqJ7KF3mrLMzujFfUcH66gvPhHL3LG7W8RCdD5Z8ce%252BuusRHdu5nf53Vh%252BNTsUcHQVoRcVB7QyVCr8IUEVtiEkVmtAMvt9RYFiy%252F5I%253D%26rv%3D0'
p4
sS'SUB'
p5
S'_2A254IJtMDeTxGeNL6FsR-CnJyj6IHXVbV4uErDV8PUNbuNBuLVbukW92lruujs5Zm6_RqWugeDL9jxj1_Q..'
p6
sS'SUBP'
p7
S'0033WrSXqPxfM725Ws9jqgMF55529P9D9WFANIrI9_8yZIhFnhiNmLC-5JpX5K2t'
p8
sS'YF-Ugrow-G0'
p9
S'ad06784f6deda07eea88e095402e4243'
p10
sS'ALF'
p11
S'1460018841'
p12
sS'__utma'
p13
S'15428400.1284777743.1427359191.1427359191.1427359191.1'
p14
sS'ULV'
p15
S'1428482455287:10:3:1:3664370903279.6323.1428482455247:1428028173429'
p16
sS'SUHB'
p17
S'0u5BP6bInRtDfR'
p18
sS'myuid'
p19
S'5480461756'
p20
sS'login_sid_t'
p21
S'e630f9ef01f776cf74b14dd6dc4272bb'
p22
sS'WBtopGlobal_register_version'
p23
S'56b492c83030fda6'
p24
sS'un'
p25
S'lianpingdaoluxi@163.com'
p26
sS'SINAGLOBAL'
p27
S'4432786474935.71.1425888241997'
p28
sS'YF-V5-G0'
p29
S'69afb7c26160eb8b724e8855d7b705c6'
p30
sS'SUP'
p31
S'cv%3D1%26bt%3D1428482844%26et%3D1428569244%26d%3Dc909%26i%3D9f05%26us%3D1%26vf%3D0%26vt%3D0%26ac%3D27%26st%3D0%26uid%3D5539087512%26name%3Dlianpingdaoluxi%2540163.com%26nick%3D%25E9%259B%2585%25E9%2599%25A4%25E5%2595%25A6%26fmp%3D%26lcp%3D2015-04-04%252007%253A45%253A40'
p32
sS'Apache'
p33
S'3664370903279.6323.1428482455247'
p34
sS'SUS'
p35
S'SID-5539087512-1428482844-GZ-jt6ab-f810d9e9595060553b10e217b4dd9f05'
p36
sS'SSOLoginState'
p37
S'1428482844'
p38
sS'_s_tentry'
p39
S'login.sina.com.cn'
p40
sS'__utmz'
p41
S'15428400.1427359191.1.1.utmcsr=weibo.com|utmccn=(referral)|utmcmd=referral|utmcct=/'
p42
s.