(dp1
S'SUE'
p2
S'es%3D023de4e40c5601a70a5ba6406374ebaa%26ev%3Dv1%26es2%3D7670f640f09fb2e387aaac34d7b842ad%26rs0%3Dsws%252B6X98eqq2CTvSEJHpH8A34w60okgeTi2FOQPCpN74cW47IBrgxLypMxgXpcPpJgMX4DuLmejfmP3x7ttNuavK9n6uIiK3OmzkMC%252BAsprBCnXLUBsNhaWvQpMVaL0bEnOai%252BqM%252BvSqUlTDhDzNRAlMMvEfqJq3AoCBtQn1c4U%253D%26rv%3D0'
p3
sS'SUB'
p4
S'_2AkMjP5iua8NlrAZSnPodxGPqb4pH-jyQ7FxYAn7uJhMyHRh77gs-qSUJojBtSAE9Jrxnmxl1IQpE90lfzg..'
p5
sS'SUBP'
p6
S'0033WrSXqPxfM725Ws9jqgMF55529P9D9Whg4Yj4wNWzzVGMuY-LvGwf5JpX5K2t'
p7
sS'YF-Page-G0'
p8
S'f70469e0b5607cacf38b47457e34254f'
p9
sS'ULV'
p10
S'1415778247059:10:7:2:3774758167564.869.1415778247001:1415606403157'
p11
sS'myuid'
p12
S'5344395719'
p13
sS'YF-Ugrow-G0'
p14
S'5b31332af1361e117ff29bb32e4d8439'
p15
sS'WBtopGlobal_register_version'
p16
S'fbfbfbcb9cac9bbd'
p17
sS'un'
p18
S'feijieshouwo2bai@163.com'
p19
sS'SINAGLOBAL'
p20
S'7734374171122.908.1414377016987'
p21
sS'YF-V5-G0'
p22
S'590253f9bb559fcb4f19c58020522401'
p23
sS'SUP'
p24
S'cv%3D1%26bt%3D1415780249%26et%3D1415866649%26d%3Dc909%26i%3Decae%26us%3D1%26vf%3D%26vt%3D%26ac%3D%26st%3D0%26uid%3D5342888837%26name%3Dfeijieshouwo17bai%2540163.com%26nick%3D%25E9%25A3%259E%25E5%25A7%2590%25E5%258F%2597%25E6%2588%259117%25E6%258B%259C%26fmp%3D%26lcp%3D'
p25
sS'Apache'
p26
S'3774758167564.869.1415778247001'
p27
sS'SUS'
p28
S'SID-5342888837-1415780249-XD-gvuds-4df3e77f0636d7507460a129137be4e7'
p29
sS'SSOLoginState'
p30
S'1415780249'
p31
sS'_s_tentry'
p32
S'us.weibo.com'
p33
s.