(dp1
S'SUE'
p2
S'es%3D7bdff14158854ed898c043794feeec85%26ev%3Dv1%26es2%3D86f5c9e298f564c0bf7ef87faddd0da8%26rs0%3DFAFiLfIxYf9ulWeBTEzsjNAuQq29zhSD9jUEQdC59sUiLj%252FwndZmXgP5I0O6IXcIpXB1IfslWLCcQbdKsYr2Hr8JskdbgZVCoFBovLxduOM23Xi8x%252BmsdBztecO3J6K74hsykJ3m3uIRkXoF1%252BtAWMZJt7y1aCGW65M2eeLGJq4%253D%26rv%3D0'
p3
sS'SUB'
p4
S'_2A254FLf7DeTxGeNL7FMW8CnMzzSIHXVbY64zrDV8PUNbu9BeLVegkW8bmVXwOOl-poi7Z5RemzjxWmuGaA..'
p5
sS'user_unver'
p6
S'00c1db5c458e94c1cf2e58597c6f359b'
p7
sS'YF-V5-G0'
p8
S'a906819fa00f96cf7912e89aa1628751'
p9
sS'SINAGLOBAL'
p10
S'4432786474935.71.1425888241997'
p11
sS'SUP'
p12
S'cv%3D1%26bt%3D1427163051%26et%3D1427249451%26d%3Dc909%26i%3D6063%26us%3D1%26vf%3D0%26vt%3D0%26ac%3D25%26st%3D0%26uid%3D5571707048%26name%3Dfeijiechiwo62quan%2540163.com%26nick%3D%25E9%25A3%259E%25E5%25A7%2590%25E5%2590%2583%25E6%2588%259162%25E6%258B%25B3%26fmp%3D%26lcp%3D'
p13
sS'user_active'
p14
S'201503241010'
p15
sS'SSOLoginState'
p16
S'1427163014'
p17
sS'WBtopGlobal_register_version'
p18
S'56b492c83030fda6'
p19
sS'Apache'
p20
S'8661812169011.683.1427162988042'
p21
sS'_s_tentry'
p22
S'login.sina.com.cn'
p23
sS'SUBP'
p24
S'0033WrSXqPxfM725Ws9jqgMF55529P9D9WFigopGTeo18-99AXxWdp145JpX5Kzt'
p25
sS'wvr'
p26
S'6'
sS'ULV'
p27
S'1427162988054:5:5:1:8661812169011.683.1427162988042:1426752025048'
p28
sS'appkey'
p29
S''
sS'SUHB'
p30
S'05iqyAH-hgWe_7'
p31
sS'ALF'
p32
S'1458699050'
p33
sS'myuid'
p34
S'5568789118'
p35
sS'YF-Ugrow-G0'
p36
S'9e7ca4c96e5e7034874e5b22c95ae5e5'
p37
sS'un'
p38
S'feijiechiwo42quan@163.com'
p39
sS'login_sid_t'
p40
S'3ed704ec1dd9a1209c91a573eb72c949'
p41
sS'SUS'
p42
S'SID-5571707048-1427163051-GZ-96joe-9f870d876facdf1046510004bde06063'
p43
s.