(dp1
S'SUE'
p2
S'es%3D935f8ca535fed02239daa97df3a4acc3%26ev%3Dv1%26es2%3D98de7091398024883163a50777c53847%26rs0%3DI61gTdnxAwh%252Bn8RwK2YA4PQCDg2JRi8HXyeLQjUv85RxDX9sSJ0J%252BCn4f2sflzNMUCbOTtvSM83tVSodIPHBTmTKsIaCmm8ueKG8HFiCqgBYkwqZwBMFHNnsMxHExIfuCKbuI%252BlbzpL1mWwhKkShNVRoNo0mMZ2H%252B2qJ%252FR9OT6U%253D%26rv%3D0'
p3
sS'SUB'
p4
S'_2A254CSAlDeTxGeNL7VQS9CvJwziIHXVbfxbtrDV8PUNbu9BeLVPTkW-OjbC7loA4TASrz_HT_5Xoq3ZHmw..'
p5
sS'user_unver'
p6
S'b284b48e37f38d408a579b69d066695a'
p7
sS'YF-V5-G0'
p8
S'a5a264208a5b5a42590274f52e6c7304'
p9
sS'SINAGLOBAL'
p10
S'4432786474935.71.1425888241997'
p11
sS'SUP'
p12
S'cv%3D1%26bt%3D1426935925%26et%3D1427022325%26d%3Dc909%26i%3D6063%26us%3D1%26vf%3D0%26vt%3D0%26ac%3D25%26st%3D0%26uid%3D5566345584%26name%3Dfeijiechiwo53quan%2540163.com%26nick%3D%25E9%25A3%259E%25E5%25A7%2590%25E5%2590%2583%25E6%2588%259153%25E6%258B%25B3%26fmp%3D%26lcp%3D'
p13
sS'user_active'
p14
S'201503211905'
p15
sS'SSOLoginState'
p16
S'1426935886'
p17
sS'YF-Page-G0'
p18
S'f0e89c46e7ea678e9f91d029ec552e92'
p19
sS'WBtopGlobal_register_version'
p20
S'56b492c83030fda6'
p21
sS'Apache'
p22
S'6167212587315.589.1426752024963'
p23
sS'_s_tentry'
p24
S'www.baidu.com'
p25
sS'SUBP'
p26
S'0033WrSXqPxfM725Ws9jqgMF55529P9D9WWD2fEQivavg1il24jVbTGl5JpX5Kzt'
p27
sS'wvr'
p28
S'6'
sS'ULV'
p29
S'1426752025048:4:4:1:6167212587315.589.1426752024963:1426037325419'
p30
sS'appkey'
p31
S''
sS'SUHB'
p32
S'0M2VsOe_ra_mNL'
p33
sS'ALF'
p34
S'1458471924'
p35
sS'myuid'
p36
S'5565961686'
p37
sS'YF-Ugrow-G0'
p38
S'bcf9d6eeb05f5fa151daa66289455f9b'
p39
sS'un'
p40
S'feijiechiwo42quan@163.com'
p41
sS'login_sid_t'
p42
S'8b41724e103d596c3cb8018ec40f0438'
p43
sS'SUS'
p44
S'SID-5566345584-1426935925-GZ-b4wy3-59234ddd493a93ce6e1883261eed6063'
p45
s.