(dp1
S'SUE'
p2
S'es%3D93b1995ce5e2854dd0418a1562e0a836%26ev%3Dv1%26es2%3Ddb8719d1070751f79768045595346155%26rs0%3Dhgkz0mwfgXo53468kjWWCPUA85Qp6TUQAlyMtYJvOLvk1uKWrLdchs6TNNqFuh%252FNE%252Fah6q2CfmXAKVHKIOVDg65p9DyLLQYjxQCO92CZqhDDbdyUC8S%252BWo2ZWaB0Dyxzve0sX2BQMZsu2mVKDBNtXMlAa44nkDfX%252B1yb0N15hS8%253D%26rv%3D0'
p3
sS'SUB'
p4
S'_2AkMjP5jla8NlrAZSnPwWxWLkZIhH-jyQ7FwTAn7uJhMyHRh87lsyqSViKedM9BU-hSUlHKSKCSwkBmKXeQ..'
p5
sS'SUBP'
p6
S'0033WrSXqPxfM725Ws9jqgMF55529P9D9WWhWlysdwhL7eV6mff1OZES5JpX5K2t'
p7
sS'YF-Page-G0'
p8
S'f70469e0b5607cacf38b47457e34254f'
p9
sS'ULV'
p10
S'1415778247059:10:7:2:3774758167564.869.1415778247001:1415606403157'
p11
sS'myuid'
p12
S'5342888837'
p13
sS'YF-Ugrow-G0'
p14
S'5b31332af1361e117ff29bb32e4d8439'
p15
sS'WBtopGlobal_register_version'
p16
S'fbfbfbcb9cac9bbd'
p17
sS'un'
p18
S'feijieshouwo2bai@163.com'
p19
sS'SINAGLOBAL'
p20
S'7734374171122.908.1414377016987'
p21
sS'YF-V5-G0'
p22
S'590253f9bb559fcb4f19c58020522401'
p23
sS'SUP'
p24
S'cv%3D1%26bt%3D1415780306%26et%3D1415866706%26d%3Dc909%26i%3Decae%26us%3D1%26vf%3D%26vt%3D%26ac%3D%26st%3D0%26uid%3D5344399685%26name%3Dfeijieshouwo18bai%2540163.com%26nick%3D%25E9%25A3%259E%25E5%25A7%2590%25E5%258F%2597%25E6%2588%259118%25E6%258B%259C%26fmp%3D%26lcp%3D'
p25
sS'Apache'
p26
S'3774758167564.869.1415778247001'
p27
sS'SUS'
p28
S'SID-5344399685-1415780306-JA-q0l3m-c8f74070c6d5e07ceb963b24fba08569'
p29
sS'SSOLoginState'
p30
S'1415780306'
p31
sS'_s_tentry'
p32
S'us.weibo.com'
p33
s.