(dp1
S'UOR'
p2
S',,login.sina.com.cn'
p3
sS'SUE'
p4
S'es%3D628fb46c40a06ed1a61655d17cd02013%26ev%3Dv1%26es2%3D6c80c563be25d20162b0ac56c578b6ff%26rs0%3DVEECRL15IJaOT%252B5INWrfFkXyduPurjmp88zwlIBFgaCinlOMc7DXqlEak5R19QQDNVJ%252BEC8sl1LV%252BWeBesD50FzVttsRCCHNeygbcYovMFm8tBVX6kfCBSqWnMgPR3frk9LFoyKG6runXm4XBBmGSOQkHu1YauteMJ%252FvYjt6pAk%253D%26rv%3D0'
p5
sS'SUB'
p6
S'_2A254IIEVDeTxGeNL6FsR-CnIzTWIHXVbV_XdrDV8PUNbuNBuLUmmkW9hI7QsxuuU9ElVix4CjiGJPU9uYQ..'
p7
sS'YF-V5-G0'
p8
S'73b58b9e32dedf309da5103c77c3af4f'
p9
sS'SINAGLOBAL'
p10
S'4923967018257.826.1425265358995'
p11
sS'SUP'
p12
S'cv%3D1%26bt%3D1428484421%26et%3D1428570821%26d%3Dc909%26i%3Dccd7%26us%3D1%26vf%3D0%26vt%3D0%26ac%3D27%26st%3D0%26uid%3D5539087469%26name%3Dtuanbi285473%2540163.com%26nick%3D%25E9%2597%25AF%25E7%2583%2582%25E7%25B4%25A7%25E7%25AB%25B9%25E8%25B7%25B3%26fmp%3D%26lcp%3D2015-04-04%252007%253A44%253A43'
p13
sS'SSOLoginState'
p14
S'1428484421'
p15
sS'YF-Page-G0'
p16
S'3ef19ae4f7a156b9290efe7e6e7d1a63'
p17
sS'WBtopGlobal_register_version'
p18
S'56b492c83030fda6'
p19
sS'Apache'
p20
S'721727686468.5118.1428152548099'
p21
sS'_s_tentry'
p22
S'login.sina.com.cn'
p23
sS'SUBP'
p24
S'0033WrSXqPxfM725Ws9jqgMF55529P9D9Wh2KAAyQ5Qxrg6ggLYJ90M45JpX5K2t'
p25
sS'wvr'
p26
S'6'
sS'ULV'
p27
S'1428152548724:6:1:2:721727686468.5118.1428152548099:1427591190833'
p28
sS'WBStore'
p29
S'bf5c852d78c6d23c|undefined'
p30
sS'__gads'
p31
S'ID'
p32
sS'appkey'
p33
S''
sS'SUHB'
p34
S'0gHyG-lVaCJcdY'
p35
sS'ALF'
p36
S'225377284421'
p37
sS'myuid'
p38
S'5539087463'
p39
sS'YF-Ugrow-G0'
p40
S'69bfe9ce876ec10bd6de7dcebfb6883e'
p41
sS'un'
p42
S'tangcang082@163.com'
p43
sS'login_sid_t'
p44
S'd0a46b790acedad0aee5695702377a7d'
p45
sS'SUS'
p46
S'SID-5539087469-1428484421-GZ-jbf29-6044986368a1cb53e6b77e6c0c46ccd7'
p47
s.