(dp1
S'SUE'
p2
S'es%3D1127b799e13a294143f8ad3036e0f156%26ev%3Dv1%26es2%3D3d6e996db2dd05ef65d8cf337789bdc1%26rs0%3DTbstR22%252FY1%252FaELnOrRrSklOlFACDXl4iU9O2gxepgpZwQSwZ4nbAiTvW3w97sdtXFGftLzMK0bC5F8pW6%252B82E%252By%252BkrUl%252BEGVaQ1KAYhKt4hPQ%252FdtWHkWAIhoqz2HPjun6O77gBHmhMGPlpD91JEx%252B9T03IiEQWmgv5079QqYA%252Bc%253D%26rv%3D0'
p3
sS'SUB'
p4
S'_2A254CsdNDeTxGeNL7VsR9yfPzDmIHXVbYb-FrDV8PUNbu9BeLXfYkW9M2Rr7ibThc7--u9VO-R1UV3W7uA..'
p5
sS'user_unver'
p6
S'8a6b30772cbbc0bb89814ab2cc6c334e'
p7
sS'YF-V5-G0'
p8
S'a5a264208a5b5a42590274f52e6c7304'
p9
sS'SINAGLOBAL'
p10
S'4432786474935.71.1425888241997'
p11
sS'SUP'
p12
S'cv%3D1%26bt%3D1427027741%26et%3D1427114141%26d%3Dc909%26i%3D6063%26us%3D1%26vf%3D0%26vt%3D0%26ac%3D25%26st%3D0%26uid%3D5569079375%26name%3Dfeijiechiwo60quan%2540163.com%26nick%3D%25E7%2594%25A8%25E6%2588%25B77027733517%26fmp%3D%26lcp%3D'
p13
sS'user_active'
p14
S'201503222035'
p15
sS'SSOLoginState'
p16
S'1427027736'
p17
sS'YF-Page-G0'
p18
S'f0e89c46e7ea678e9f91d029ec552e92'
p19
sS'WBtopGlobal_register_version'
p20
S'56b492c83030fda6'
p21
sS'Apache'
p22
S'6167212587315.589.1426752024963'
p23
sS'_s_tentry'
p24
S'www.baidu.com'
p25
sS'SUBP'
p26
S'0033WrSXqPxfM725Ws9jqgMF55529P9D9Wh06-UjuRs2nsOhKWI.YW.l5JpX5Kzt'
p27
sS'wvr'
p28
S'6'
sS'ULV'
p29
S'1426752025048:4:4:1:6167212587315.589.1426752024963:1426037325419'
p30
sS'appkey'
p31
S''
sS'SUHB'
p32
S'09PtSOw9f9wMmP'
p33
sS'ALF'
p34
S'1458563741'
p35
sS'myuid'
p36
S'5569078676'
p37
sS'YF-Ugrow-G0'
p38
S'bcf9d6eeb05f5fa151daa66289455f9b'
p39
sS'un'
p40
S'feijiechiwo42quan@163.com'
p41
sS'login_sid_t'
p42
S'8b41724e103d596c3cb8018ec40f0438'
p43
sS'SUS'
p44
S'SID-5569079375-1427027741-GZ-jz90s-de897543dd5297e6e1c6f7ae24716063'
p45
s.