(dp1
S'SUE'
p2
S'es%3Dee1768f2ad5caf5f56c2fcdc6a07a665%26ev%3Dv1%26es2%3D0e358c462c82935b47509972b87d2c7a%26rs0%3DsMo5zpCKucxKNG6%252F1LDoatbui0v1HFEzYTcUEWmLBszsjUyUH8DncD6WEYpDL9CXA0qVhlX49bIcTgCAJAg9m6cZ7t5hYQkCyJLWN3oVML1LKkE2J6wlrZEjd%252F6DG%252BZ9g2P7P3Ii4jLOD4O9ufgeheARKyrbjO2sJLUKiaNsMGQ%253D%26rv%3D0'
p3
sS'SUB'
p4
S'_2A254IIQ5DeTxGeNL6FsR-CnJzziIHXVbV_LxrDV8PUNbuNBeLW3MkW8-FBZbRLTWGLx9bEadT_HHfjnD5A..'
p5
sS'YF-V5-G0'
p6
S'69afb7c26160eb8b724e8855d7b705c6'
p7
sS'SINAGLOBAL'
p8
S'4432786474935.71.1425888241997'
p9
sS'SUP'
p10
S'cv%3D1%26bt%3D1428485225%26et%3D1428571625%26d%3Dc909%26i%3D6063%26us%3D1%26vf%3D0%26vt%3D0%26ac%3D27%26st%3D0%26uid%3D5539087544%26name%3Dsudui77759595%2540163.com%26nick%3D%25E5%25AB%2582%25E6%2585%258E%25E9%259A%259C%25E9%25A1%25BE%25E8%25BF%2588%26fmp%3D%26lcp%3D2015-04-04%252007%253A46%253A09'
p11
sS'SSOLoginState'
p12
S'1428485225'
p13
sS'YF-Page-G0'
p14
S'fd1c2f5a1b1b0aec242690ee6b1d7f51'
p15
sS'WBtopGlobal_register_version'
p16
S'56b492c83030fda6'
p17
sS'Apache'
p18
S'3664370903279.6323.1428482455247'
p19
sS'_s_tentry'
p20
S'login.sina.com.cn'
p21
sS'__utmz'
p22
S'15428400.1427359191.1.1.utmcsr=weibo.com|utmccn=(referral)|utmcmd=referral|utmcct=/'
p23
sS'SUBP'
p24
S'0033WrSXqPxfM725Ws9jqgMF55529P9D9WFzJAAHo5l4wYF6ENgu9-F85JpX5K2t'
p25
sS'wvr'
p26
S'6'
sS'ULV'
p27
S'1428482455287:10:3:1:3664370903279.6323.1428482455247:1428028173429'
p28
sS'__utma'
p29
S'15428400.1284777743.1427359191.1427359191.1427359191.1'
p30
sS'SUHB'
p31
S'0jBYjlG0eJeQXA'
p32
sS'ALF'
p33
S'1460021224'
p34
sS'myuid'
p35
S'5534676360'
p36
sS'YF-Ugrow-G0'
p37
S'ad06784f6deda07eea88e095402e4243'
p38
sS'un'
p39
S'sudui77759595@163.com'
p40
sS'login_sid_t'
p41
S'e630f9ef01f776cf74b14dd6dc4272bb'
p42
sS'SUS'
p43
S'SID-5539087544-1428485225-GZ-ajdiq-77ce55f425820779185c416b6df16063'
p44
s.