(dp1
S'UOR'
p2
S',,login.sina.com.cn'
p3
sS'SUE'
p4
S'es%3D7441847864352172dcfe150c7e43d46c%26ev%3Dv1%26es2%3D4386b4d524c1816b5d1c7c6e2d45b9c2%26rs0%3DaOR1hN7jX1BjNY7GipIgNdi%252FdEbAoWPOH3576WEjBf0ivMYtkspOkPKInTv2qit7lbZ%252F5bcDeu8MH%252BOIQEj4AJYcHUn7CoZs9U11UJRcQTwLR2H1qNHxdBX%252BdiGNh8jobucZexC3KU3HzGOFFWS019VgJmiSiixqehw32rDHoac%253D%26rv%3D0'
p5
sS'SUB'
p6
S'_2A254IIkxDeTxGeNL6FYX9yjPyjiIHXVbV_35rDV8PUNbuNBuLRbVkW80PFfxfRwlr6FKokJCjeUtHZ7ngw..'
p7
sS'YF-V5-G0'
p8
S'73b58b9e32dedf309da5103c77c3af4f'
p9
sS'SINAGLOBAL'
p10
S'4923967018257.826.1425265358995'
p11
sS'SUP'
p12
S'cv%3D1%26bt%3D1428486497%26et%3D1428572897%26d%3Dc909%26i%3Dccd7%26us%3D1%26vf%3D0%26vt%3D0%26ac%3D27%26st%3D0%26uid%3D5534676314%26name%3Dsuwu0391410%2540163.com%26nick%3D%25E6%2598%258C%25E6%259F%25BF%25E6%259F%2590%25E8%2582%25BE%26fmp%3D%26lcp%3D2015-04-04%252007%253A45%253A03'
p13
sS'SSOLoginState'
p14
S'1428486497'
p15
sS'YF-Page-G0'
p16
S'3ef19ae4f7a156b9290efe7e6e7d1a63'
p17
sS'WBtopGlobal_register_version'
p18
S'56b492c83030fda6'
p19
sS'Apache'
p20
S'721727686468.5118.1428152548099'
p21
sS'_s_tentry'
p22
S'login.sina.com.cn'
p23
sS'SUBP'
p24
S'0033WrSXqPxfM725Ws9jqgMF55529P9D9WFNXeZyTm9Zf0JW09HpbuO_5JpX5K2t'
p25
sS'wvr'
p26
S'6'
sS'ULV'
p27
S'1428152548724:6:1:2:721727686468.5118.1428152548099:1427591190833'
p28
sS'WBStore'
p29
S'bf5c852d78c6d23c|undefined'
p30
sS'__gads'
p31
S'ID'
p32
sS'appkey'
p33
S''
sS'SUHB'
p34
S'0d4ugiZ0DVOpy2'
p35
sS'ALF'
p36
S'225377286497'
p37
sS'myuid'
p38
S'5539087486'
p39
sS'YF-Ugrow-G0'
p40
S'69bfe9ce876ec10bd6de7dcebfb6883e'
p41
sS'un'
p42
S'tangcang082@163.com'
p43
sS'login_sid_t'
p44
S'd0a46b790acedad0aee5695702377a7d'
p45
sS'SUS'
p46
S'SID-5534676314-1428486497-GZ-9m8rf-109d9d2beab4d5ea7687b993459cccd7'
p47
s.