(dp1
S'UOR'
p2
S',,login.sina.com.cn'
p3
sS'SUE'
p4
S'es%3Dd61d508c969955225b8610c1feb73b71%26ev%3Dv1%26es2%3D20886c7684a97db199b585bc513fb6bc%26rs0%3Dg0cNcmoWi8EI1XwqGpXvaKUd9Ou1RFWxv4UDflnOuVYi%252FzOc11Yt0lq4auFXcN9%252FstBaXw%252FYFd2ZgJQTSZXWNqGdHP2lvsvv4nJgsJDmVMn000E6yfcYouui6MjX2FqdP3Sr6jKG0IP0jNBYbXChXElHnm6o0qUdarfWT%252Fxc7Z4%253D%26rv%3D0'
p5
sS'SUB'
p6
S'_2A254IX3WDeTxGeNL6FsR-CnIwjSIHXVbV-gerDV8PUNbuNBuLWrFkW8sG7EJ6M6gsmSa_itCawgIee-4Ig..'
p7
sS'YF-V5-G0'
p8
S'73b58b9e32dedf309da5103c77c3af4f'
p9
sS'SINAGLOBAL'
p10
S'4923967018257.826.1425265358995'
p11
sS'SUP'
p12
S'cv%3D1%26bt%3D1428491654%26et%3D1428578054%26d%3Dc909%26i%3Dccd7%26us%3D1%26vf%3D0%26vt%3D0%26ac%3D27%26st%3D0%26uid%3D5539087498%26name%3Dfeidi7557559%2540163.com%26nick%3D%25E4%25B8%25A4%25E7%25A6%25BB%25E5%259C%2586%25E7%259D%2580%26fmp%3D%26lcp%3D2015-04-04%252007%253A45%253A22'
p13
sS'SSOLoginState'
p14
S'1428491654'
p15
sS'YF-Page-G0'
p16
S'3ef19ae4f7a156b9290efe7e6e7d1a63'
p17
sS'WBtopGlobal_register_version'
p18
S'56b492c83030fda6'
p19
sS'Apache'
p20
S'721727686468.5118.1428152548099'
p21
sS'_s_tentry'
p22
S'login.sina.com.cn'
p23
sS'SUBP'
p24
S'0033WrSXqPxfM725Ws9jqgMF55529P9D9WWNTXJ5rHW7KeqKBHjPKYXc5JpX5K2t'
p25
sS'wvr'
p26
S'6'
sS'ULV'
p27
S'1428152548724:6:1:2:721727686468.5118.1428152548099:1427591190833'
p28
sS'WBStore'
p29
S'bf5c852d78c6d23c|undefined'
p30
sS'__gads'
p31
S'ID'
p32
sS'appkey'
p33
S''
sS'SUHB'
p34
S'0laVlW-JAOjcGk'
p35
sS'ALF'
p36
S'225377291654'
p37
sS'myuid'
p38
S'5480461753'
p39
sS'YF-Ugrow-G0'
p40
S'69bfe9ce876ec10bd6de7dcebfb6883e'
p41
sS'un'
p42
S'tangcang082@163.com'
p43
sS'login_sid_t'
p44
S'd0a46b790acedad0aee5695702377a7d'
p45
sS'SUS'
p46
S'SID-5539087498-1428491654-GZ-95c0d-5b99fc542539037ea5c0284403e9ccd7'
p47
s.