(dp1
S'SUE'
p2
S'es%3Dfac839c27d40ba15e539e696ec1654a3%26ev%3Dv1%26es2%3Dd70cb268e01bbf30d257e02e0a0e781c%26rs0%3DwEGcVk16l0fkm1ramsI18MZMEeeaT9TAiTEfAlrTNNczbi5rEqT5VMrEa3pXtNQlo8s5qNX%252F3m6PIBzY3HSA31%252BE8p53lwe%252BqgBchXvqNYAxAynxaOVMXuBvLd78mD%252FwEYyOAen5rASmS8aWUa%252Bemken034wv5qjJbeEZQ7bPgw%253D%26rv%3D0'
p3
sS'SUB'
p4
S'_2A254BEasDeTxGeNL71sW9irKzjiIHXVbcD9krDV8PUNbu9BeLXT3kW-Ktz8XPb0lKxxWhwY3bmOl-dY78A..'
p5
sS'user_unver'
p6
S'c1c80eaa4d1ff9dea60d36023e42aee2'
p7
sS'YF-V5-G0'
p8
S'5468b83cd1a503b6427769425908497c'
p9
sS'SINAGLOBAL'
p10
S'4432786474935.71.1425888241997'
p11
sS'SUP'
p12
S'cv%3D1%26bt%3D1426077436%26et%3D1426163836%26d%3Dc909%26i%3D6063%26us%3D1%26vf%3D0%26vt%3D0%26ac%3D25%26st%3D0%26uid%3D5549764654%26name%3Dfeijiechiwo38quan%2540163.com%26nick%3D%25E9%25A3%259E%25E5%25A7%2590%25E5%2590%2583%25E6%2588%259138%25E6%258B%25B3%26fmp%3D%26lcp%3D'
p13
sS'user_active'
p14
S'201503112037'
p15
sS'SSOLoginState'
p16
S'1426077360'
p17
sS'YF-Page-G0'
p18
S'c81c3ead2c8078295a6f198a334a5e82'
p19
sS'WBtopGlobal_register_version'
p20
S'50a1e1c073454fe6'
p21
sS'Apache'
p22
S'4466015100479.126.1426037324590'
p23
sS'_s_tentry'
p24
S'-'
sS'SUBP'
p25
S'0033WrSXqPxfM725Ws9jqgMF55529P9D9WFEH0ieIDeB3XQz0R8MChn25JpX5Kzt'
p26
sS'wvr'
p27
S'6'
sS'ULV'
p28
S'1426037325419:3:3:3:4466015100479.126.1426037324590:1425890347539'
p29
sS'WBStore'
p30
S'3f8ca8cd96b39592|undefined'
p31
sS'appkey'
p32
S''
sS'SUHB'
p33
S'0Jvw-9dDZHgJl1'
p34
sS'ALF'
p35
S'1457613434'
p36
sS'myuid'
p37
S'5548608912'
p38
sS'YF-Ugrow-G0'
p39
S'1eba44dbebf62c27ae66e16d40e02964'
p40
sS'un'
p41
S'feijiechiwo33quan@163.com'
p42
sS'login_sid_t'
p43
S'0c3bceb70dd46d997d129a34f9849616'
p44
sS'SUS'
p45
S'SID-5549764654-1426077436-GZ-1blrw-b3518ba863a8ea143740235384b16063'
p46
s.