(dp1
S'UOR'
p2
S',,login.sina.com.cn'
p3
sS'SUE'
p4
S'es%3D3810e5406f2257470e4ac4de72f9055b%26ev%3Dv1%26es2%3D27878d1a4a20db7ff605e37fede28ab1%26rs0%3Dsz3QaEoR5yOBvZ4iD2475WhaMQ%252FnCs5NMa%252FA4aC6w3WXn%252FqV4zqPtsR5r5PbyQMeV3jETEIdg1iYrZ8ATYp63oNo3beV0KuEBHnZi4vSYKJNuXF9KV60paea3FPyD%252BcIGGLaEPJslRLq13HuLLOaS47yBSSy038exjB6RigGA%252Fo%253D%26rv%3D0'
p5
sS'SUB'
p6
S'_2A254IIMmDeTxGeNK41IV9i_LyD-IHXVbV_PurDV8PUNbuNBuLUrikW9jNcoqSr0TtzNjRGeb4TIdotxg0w..'
p7
sS'YF-V5-G0'
p8
S'73b58b9e32dedf309da5103c77c3af4f'
p9
sS'SINAGLOBAL'
p10
S'4923967018257.826.1425265358995'
p11
sS'SUP'
p12
S'cv%3D1%26bt%3D1428484982%26et%3D1428571382%26d%3Dc909%26i%3Dccd7%26us%3D1%26vf%3D0%26vt%3D0%26ac%3D27%26st%3D0%26uid%3D5480461733%26name%3Dbenhuai49431%2540163.com%26nick%3D%25E6%25A2%25A8%25E5%25A1%25AB%25E6%2584%2589%26fmp%3D%26lcp%3D2015-04-04%252007%253A44%253A47'
p13
sS'SSOLoginState'
p14
S'1428484982'
p15
sS'YF-Page-G0'
p16
S'3ef19ae4f7a156b9290efe7e6e7d1a63'
p17
sS'WBtopGlobal_register_version'
p18
S'56b492c83030fda6'
p19
sS'Apache'
p20
S'721727686468.5118.1428152548099'
p21
sS'_s_tentry'
p22
S'login.sina.com.cn'
p23
sS'SUBP'
p24
S'0033WrSXqPxfM725Ws9jqgMF55529P9D9W5j7g2i63SpVwyKGAkSolrz5JpX5K2t'
p25
sS'wvr'
p26
S'6'
sS'ULV'
p27
S'1428152548724:6:1:2:721727686468.5118.1428152548099:1427591190833'
p28
sS'WBStore'
p29
S'bf5c852d78c6d23c|undefined'
p30
sS'__gads'
p31
S'ID'
p32
sS'appkey'
p33
S''
sS'SUHB'
p34
S'0y0JmcLag2hn3V'
p35
sS'ALF'
p36
S'225377284982'
p37
sS'myuid'
p38
S'5534676303'
p39
sS'YF-Ugrow-G0'
p40
S'69bfe9ce876ec10bd6de7dcebfb6883e'
p41
sS'un'
p42
S'tangcang082@163.com'
p43
sS'login_sid_t'
p44
S'd0a46b790acedad0aee5695702377a7d'
p45
sS'SUS'
p46
S'SID-5480461733-1428484982-GZ-nv1rd-0efd6da4f114ad4531601e0ce804ccd7'
p47
s.