(dp1
S'_gat_WeiBoChannel'
p2
S'1'
sS'SUE'
p3
S'es%3D06a3f0d58b5d9d8e43a579c1422ec2af%26ev%3Dv1%26es2%3D17ccbdb3161e2b4d7f58dec79f419885%26rs0%3DX4XTLXsBN0rwNvhIWYV9V0MZeC6WfQhV2ESAMeGSH3ZX1KeauIqcwwRMDxlWTn%252BZ%252FBxynJqmkkbTkMKgny6enXnu3KyhvfGWJ9EOVbaxCnAThBJX7GmkluUA3cjNWduzU3c0A3gQHCHRDMVbV4R%252BjPfYwM2uFdC7zxXNRWGE%252Fq4%253D%26rv%3D0'
p4
sS'wvr'
p5
S'6'
sS'SUB'
p6
S'_2A254IJuBDeTxGeNL6FsR-CnJyjqIHXVbV4pJrDV8PUJbuNAKLUvykW-cJaurgyGDkGZxpqLtpZ3nZE2eug..'
p7
sS'SUBP'
p8
S'0033WrSXqPxfM725Ws9jqgMF55529P9D9W5c7p__b1Y7.aCmUmigTkAA5JpX5K2t'
p9
sS'ALF'
p10
S'0'
sS'ULV'
p11
S'1428482455287:10:3:1:3664370903279.6323.1428482455247:1428028173429'
p12
sS'__utma'
p13
S'15428400.1284777743.1427359191.1427359191.1427359191.1'
p14
sS'_ga'
p15
S'GA1.3.224445871.1426078183'
p16
sS'SUHB'
p17
S'02M_Fqf_DFfd0j'
p18
sS'myuid'
p19
S'5539087512'
p20
sS'login_sid_t'
p21
S'e630f9ef01f776cf74b14dd6dc4272bb'
p22
sS'un'
p23
S'lianpingdaoluxi@163.com'
p24
sS'SINAGLOBAL'
p25
S'4432786474935.71.1425888241997'
p26
sS'SUP'
p27
S'cv%3D1%26bt%3D1428483025%26et%3D1428569425%26d%3Dc909%26i%3Daa31%26us%3D1%26vf%3D1%26vt%3D2%26ac%3D27%26st%3D0%26uid%3D5539087516%26name%3Dliaojiu2847707%2540163.com%26nick%3D%25E7%2594%25A8%25E6%2588%25B75539087516%26fmp%3D%26lcp%3D2015-04-04%252007%253A45%253A43'
p28
sS'Apache'
p29
S'3664370903279.6323.1428482455247'
p30
sS'SUS'
p31
S'SID-5539087516-1428483025-XD-6018c-9363af035bc82ce7ee5a26f1e8ce9f05'
p32
sS'_s_tentry'
p33
S'login.sina.com.cn'
p34
sS'__utmz'
p35
S'15428400.1427359191.1.1.utmcsr=weibo.com|utmccn=(referral)|utmcmd=referral|utmcct=/'
p36
sS'TS016d18b4'
p37
S'01d72e94acb902b947508a782387077d4c20f11786d84d1481377b558ddd5515d4826a0c94'
p38
s.