(dp1
S'UOR'
p2
S',,login.sina.com.cn'
p3
sS'SUE'
p4
S'es%3D6098ade14f681b8a26d2d4e5cc4be2cc%26ev%3Dv1%26es2%3D30215c8fd7a4a84bfd69dfd663b71e0f%26rs0%3D4hgdvLgJ547Y5M%252BjGeMd9d9dLQkPujyTgBlHaZxooUeKRQ7TqDJgswKIdNl7GoMxhjGSgmiMumpY8cq4p8zZ1e9aDJs8ysX%252BGJKsiSHp5x4urXyFqxwGFeOTZLyYw6a3wbtu65cAlWru032uOnu%252ByJ%252B0t1Iu%252BkDK%252F5vbOEy4Me8%253D%26rv%3D0'
p5
sS'SUB'
p6
S'_2A254IX2DDeTxGeNL6FsR-CnJyzyIHXVbV-hLrDV8PUNbuNBuLUTakW8cCzkvbOd3neBgsrXHGgw_FYBwYg..'
p7
sS'YF-V5-G0'
p8
S'73b58b9e32dedf309da5103c77c3af4f'
p9
sS'SINAGLOBAL'
p10
S'4923967018257.826.1425265358995'
p11
sS'SUP'
p12
S'cv%3D1%26bt%3D1428491731%26et%3D1428578131%26d%3Dc909%26i%3Dccd7%26us%3D1%26vf%3D0%26vt%3D0%26ac%3D27%26st%3D0%26uid%3D5539087500%26name%3Dpinglukengzhizh%2540163.com%26nick%3D%25E5%25B0%258F%25E6%258F%2589%25E7%2583%25A4%26fmp%3D%26lcp%3D2015-04-04%252007%253A45%253A25'
p13
sS'SSOLoginState'
p14
S'1428491731'
p15
sS'YF-Page-G0'
p16
S'3ef19ae4f7a156b9290efe7e6e7d1a63'
p17
sS'WBtopGlobal_register_version'
p18
S'56b492c83030fda6'
p19
sS'Apache'
p20
S'721727686468.5118.1428152548099'
p21
sS'_s_tentry'
p22
S'login.sina.com.cn'
p23
sS'SUBP'
p24
S'0033WrSXqPxfM725Ws9jqgMF55529P9D9WhMuWnmW8gEkpOOIQIdsqUc5JpX5K2t'
p25
sS'wvr'
p26
S'6'
sS'ULV'
p27
S'1428152548724:6:1:2:721727686468.5118.1428152548099:1427591190833'
p28
sS'WBStore'
p29
S'bf5c852d78c6d23c|undefined'
p30
sS'__gads'
p31
S'ID'
p32
sS'appkey'
p33
S''
sS'SUHB'
p34
S'0nl-J2Fi8mCSiS'
p35
sS'ALF'
p36
S'225377291731'
p37
sS'myuid'
p38
S'5539087498'
p39
sS'YF-Ugrow-G0'
p40
S'69bfe9ce876ec10bd6de7dcebfb6883e'
p41
sS'un'
p42
S'tangcang082@163.com'
p43
sS'login_sid_t'
p44
S'd0a46b790acedad0aee5695702377a7d'
p45
sS'SUS'
p46
S'SID-5539087500-1428491731-GZ-53f4b-a575b243038c8ad926b0bf28099fccd7'
p47
s.