(dp1
S'UOR'
p2
S',,login.sina.com.cn'
p3
sS'SUE'
p4
S'es%3D1e392df25af6e29ad52089adc9afa894%26ev%3Dv1%26es2%3D35a654bfe1847c57f0418f62e2758d5c%26rs0%3Dpo9XWmTzdMFYaxpaZB27KPqB864mCg1Hl5wjHe%252Bh6aX%252BmKKb3QkfpBRhQ2GJdg1BKs4ydAtgAUslVDRwoCWDrgqhGVWeH0znz2mw42EYy%252Bg%252FuzaFscVucVkqhE%252Bhv2xwuHpjt%252FU5eM1CleBO3YdFjhFwZAmvl5P4Q52UbJCx1Do%253D%26rv%3D0'
p5
sS'SUB'
p6
S'_2A254IIH-DeTxGeNL6FYX9yjOwjuIHXVbV_Q2rDV8PUNbuNBuLUH4kW99OAJTbrEVH1zG2I91b-ErneTePQ..'
p7
sS'YF-V5-G0'
p8
S'73b58b9e32dedf309da5103c77c3af4f'
p9
sS'SINAGLOBAL'
p10
S'4923967018257.826.1425265358995'
p11
sS'SUP'
p12
S'cv%3D1%26bt%3D1428484526%26et%3D1428570926%26d%3Dc909%26i%3Dccd7%26us%3D1%26vf%3D0%26vt%3D0%26ac%3D27%26st%3D0%26uid%3D5534676297%26name%3Dchuoyonghuijiad%2540163.com%26nick%3D%25E5%258E%2582%25E5%2588%25B6%25E6%258B%25A6%25E6%2591%2598%25E5%25B7%25A9%26fmp%3D%26lcp%3D2015-04-04%252007%253A44%253A40'
p13
sS'SSOLoginState'
p14
S'1428484505'
p15
sS'YF-Page-G0'
p16
S'3ef19ae4f7a156b9290efe7e6e7d1a63'
p17
sS'WBtopGlobal_register_version'
p18
S'56b492c83030fda6'
p19
sS'Apache'
p20
S'721727686468.5118.1428152548099'
p21
sS'_s_tentry'
p22
S'login.sina.com.cn'
p23
sS'SUBP'
p24
S'0033WrSXqPxfM725Ws9jqgMF55529P9D9W5s6u54WC_XPDCqCeqi7MWq5JpX5K2t'
p25
sS'wvr'
p26
S'6'
sS'ULV'
p27
S'1428152548724:6:1:2:721727686468.5118.1428152548099:1427591190833'
p28
sS'WBStore'
p29
S'bf5c852d78c6d23c|undefined'
p30
sS'__gads'
p31
S'ID'
p32
sS'appkey'
p33
S''
sS'SUHB'
p34
S'02M_FqfDHFfd7r'
p35
sS'ALF'
p36
S'225377284526'
p37
sS'myuid'
p38
S'5539087469'
p39
sS'YF-Ugrow-G0'
p40
S'69bfe9ce876ec10bd6de7dcebfb6883e'
p41
sS'un'
p42
S'tangcang082@163.com'
p43
sS'login_sid_t'
p44
S'd0a46b790acedad0aee5695702377a7d'
p45
sS'SUS'
p46
S'SID-5534676297-1428484526-GZ-21plf-b9313095c9ac5c48357307e84632ccd7'
p47
s.