(dp1
S'SUE'
p2
S'es%3Dae77279c5884c6a44be12572e3198b4b%26ev%3Dv1%26es2%3D46d9f8ec6321c55f9d5e2a3d3bb1af8c%26rs0%3DQG%252FpMWnIuE%252ByJ%252BC7DbD1hDdSmKYtWtYuenN9Ju7dTJEd58ylZPhbQhGbXHfuL1%252FlvnAhay3CjXEdH1HNoZ20mxkcvhLvZqHbhU0s5PlSOKIj0xvR1hlRYG8UBavwXAqGdwhK7c1VqDvtJ9GWQSjt05HaAU4tRLDQJS02RKfISus%253D%26rv%3D0'
p3
sS'SUB'
p4
S'_2AkMjP5pUa8NlrAZSnPwTyGLjaYhH-jyQ7F6iAn7uJhMyHRh77nYzqSWhCNPYyHLAXYAz8gys50qNlS7ZlA..'
p5
sS'SUBP'
p6
S'0033WrSXqPxfM725Ws9jqgMF55529P9D9WWP7Vuu-X6loYABpia375MI5JpX5K2t'
p7
sS'YF-Page-G0'
p8
S'f70469e0b5607cacf38b47457e34254f'
p9
sS'ULV'
p10
S'1415778247059:10:7:2:3774758167564.869.1415778247001:1415606403157'
p11
sS'myuid'
p12
S'5344648926'
p13
sS'YF-Ugrow-G0'
p14
S'5b31332af1361e117ff29bb32e4d8439'
p15
sS'WBtopGlobal_register_version'
p16
S'fbfbfbcb9cac9bbd'
p17
sS'un'
p18
S'feijieshouwo2bai@163.com'
p19
sS'SINAGLOBAL'
p20
S'7734374171122.908.1414377016987'
p21
sS'YF-V5-G0'
p22
S'590253f9bb559fcb4f19c58020522401'
p23
sS'SUP'
p24
S'cv%3D1%26bt%3D1415779683%26et%3D1415866083%26d%3Dc909%26i%3Decae%26us%3D1%26vf%3D%26vt%3D%26ac%3D%26st%3D0%26uid%3D5344649155%26name%3Dfeijieshouwo10bai%2540163.com%26nick%3D%25E9%25A3%259E%25E5%25A7%2590%25E5%258F%2597%25E6%2588%259110%25E6%258B%259C%26fmp%3D%26lcp%3D'
p25
sS'Apache'
p26
S'3774758167564.869.1415778247001'
p27
sS'SUS'
p28
S'SID-5344649155-1415779683-XD-hg4jr-3e56ab94cbb0d49cb674f39dd76b8569'
p29
sS'SSOLoginState'
p30
S'1415779683'
p31
sS'_s_tentry'
p32
S'us.weibo.com'
p33
s.