(dp1
S'UOR'
p2
S',,login.sina.com.cn'
p3
sS'SUE'
p4
S'es%3D18b23873b1e5f96edc7a31fdd620a477%26ev%3Dv1%26es2%3D26701f0d68eb30cb829a7b54af400529%26rs0%3DH45WKxmNZe8nB%252B21vr7zgpSmz5vkOBZjrRt0ypRFbhcIl5PgPNMnGV87QtLJ1mKDJwDs33l1QCiQUiehi4m0VXLBg%252FCS325ohIAI8ZmnnqCicB5tMldfALeH3eueucs1gaJiXEimyciv1RERosRVT2PhBPZUR1IKMwEnqjNOzyU%253D%26rv%3D0'
p5
sS'SUB'
p6
S'_2A254IX8DDeTxGeNL6FYX9yjPyD6IHXVbV9fLrDV8PUNbuNBuLWWlkW8i1MdPTJxVO9WrxWn6K5IvbrHNBQ..'
p7
sS'YF-V5-G0'
p8
S'73b58b9e32dedf309da5103c77c3af4f'
p9
sS'SINAGLOBAL'
p10
S'4923967018257.826.1425265358995'
p11
sS'SUP'
p12
S'cv%3D1%26bt%3D1428492115%26et%3D1428578515%26d%3Dc909%26i%3Dccd7%26us%3D1%26vf%3D0%26vt%3D0%26ac%3D27%26st%3D0%26uid%3D5534676332%26name%3Ddengguanyadou%2540163.com%26nick%3D%25E6%25BC%258F%25E5%2589%25A5%25E5%2590%25A6%25E5%25BC%2584%25E6%2597%25A0%26fmp%3D%26lcp%3D2015-04-04%252007%253A45%253A30'
p13
sS'SSOLoginState'
p14
S'1428492115'
p15
sS'YF-Page-G0'
p16
S'3ef19ae4f7a156b9290efe7e6e7d1a63'
p17
sS'WBtopGlobal_register_version'
p18
S'56b492c83030fda6'
p19
sS'Apache'
p20
S'721727686468.5118.1428152548099'
p21
sS'_s_tentry'
p22
S'login.sina.com.cn'
p23
sS'SUBP'
p24
S'0033WrSXqPxfM725Ws9jqgMF55529P9D9WFC-ueZADXJLYQzeFDQB5zD5JpX5K2t'
p25
sS'wvr'
p26
S'6'
sS'ULV'
p27
S'1428152548724:6:1:2:721727686468.5118.1428152548099:1427591190833'
p28
sS'WBStore'
p29
S'bf5c852d78c6d23c|undefined'
p30
sS'__gads'
p31
S'ID'
p32
sS'appkey'
p33
S''
sS'SUHB'
p34
S'0tK6iald5mCByg'
p35
sS'ALF'
p36
S'225377292115'
p37
sS'myuid'
p38
S'5539087502'
p39
sS'YF-Ugrow-G0'
p40
S'69bfe9ce876ec10bd6de7dcebfb6883e'
p41
sS'un'
p42
S'tangcang082@163.com'
p43
sS'login_sid_t'
p44
S'd0a46b790acedad0aee5695702377a7d'
p45
sS'SUS'
p46
S'SID-5534676332-1428492115-GZ-ykrbh-31ff2a339f1ebc5cf874eff82e8accd7'
p47
s.