(dp1
S'SUE'
p2
S'es%3D85db872662416208ccd1b9b06480f97f%26ev%3Dv1%26es2%3De1766b2b3155d76e36cabbcea3201f44%26rs0%3D040YHqAiRq1x2Vnbj8XNlOeLU7LYfRRP6EnJsJYiPu8lgjpA%252F2FQKoOzZhEBco5MPiUuB7RWQetrRLUx3FeEmd6H3BXjRVUj%252FybwIr0I3%252FELQFmdGeNil9a223Tu6MaEniyg7s1S%252FMcJTT4mRRsoDV7Hme6T2AMyrb2LlKgFNAY%253D%26rv%3D0'
p3
sS'SUB'
p4
S'_2A254DvUnDeTxGeNL7VEX9CnEyTmIHXVbemHvrDV8PUNbu9BeLUPYkW911Mn84QGIQcOZYjAlf8ICv4XQ9A..'
p5
sS'user_unver'
p6
S'1a1ff30fa5303f42a410db6920e7abe3'
p7
sS'YF-V5-G0'
p8
S'a5a264208a5b5a42590274f52e6c7304'
p9
sS'SINAGLOBAL'
p10
S'4432786474935.71.1425888241997'
p11
sS'SUP'
p12
S'cv%3D1%26bt%3D1426752887%26et%3D1426839287%26d%3Dc909%26i%3D6063%26us%3D1%26vf%3D0%26vt%3D0%26ac%3D25%26st%3D0%26uid%3D5563647825%26name%3Dfeijiechiwo41quan%2540163.com%26nick%3D%25E7%2594%25A8%25E6%2588%25B76752819660%26fmp%3D%26lcp%3D'
p13
sS'user_active'
p14
S'201503191614'
p15
sS'SSOLoginState'
p16
S'1426752870'
p17
sS'YF-Page-G0'
p18
S'f0e89c46e7ea678e9f91d029ec552e92'
p19
sS'WBtopGlobal_register_version'
p20
S'56b492c83030fda6'
p21
sS'Apache'
p22
S'6167212587315.589.1426752024963'
p23
sS'_s_tentry'
p24
S'www.baidu.com'
p25
sS'SUBP'
p26
S'0033WrSXqPxfM725Ws9jqgMF55529P9D9WFM5EYywX_plXY1KIBbrPlB5JpX5Kzt'
p27
sS'wvr'
p28
S'6'
sS'ULV'
p29
S'1426752025048:4:4:1:6167212587315.589.1426752024963:1426037325419'
p30
sS'appkey'
p31
S''
sS'SUHB'
p32
S'010WxkxLOA-zOR'
p33
sS'ALF'
p34
S'1458288884'
p35
sS'myuid'
p36
S'5563073578'
p37
sS'YF-Ugrow-G0'
p38
S'bcf9d6eeb05f5fa151daa66289455f9b'
p39
sS'un'
p40
S'feijiechiwo41quan@163.com'
p41
sS'login_sid_t'
p42
S'8b41724e103d596c3cb8018ec40f0438'
p43
sS'SUS'
p44
S'SID-5563647825-1426752887-GZ-w7lrq-66fd74267b7851bd4e871a6e30606063'
p45
s.