(dp1
S'ALF'
p2
S'1459991887'
p3
sS'SUE'
p4
S'es%3Dd622f1d30a2992c08a29cee0956fe9a0%26ev%3Dv1%26es2%3Dfc5ffa6b33ce1bf87331f9a446ad7aeb%26rs0%3DFecF9%252FxbJLslfMUpA6QdVYObdhDRTpme5ljhe%252FW9BL9eobOzsfr2cnUAQXeOr9%252FaSZgE2nQxUB51OuHmVxIWRXCb1ufnJPLm2kL9GrWIztWZWUsyEwFae2Weq7uiTIGOfK7PoEhaFLCFtQklUeijfzZNxRQeUAP07du%252FO0fB9Eg%253D%26rv%3D0'
p5
sS'SUB'
p6
S'_2A254IPGADeTxGeRM7lUV9i_JwjmIHXVbVGRIrDV8PUNbu9BuLXbfkW9gElova6kEE0L8hgQle3y3fa5qrQ..'
p7
sS'SUBP'
p8
S'0033WrSXqPxfM725Ws9jqgMF55529P9D9WWicvoCSGxgXMkeCAvQ_WAj5JpX5Kzt'
p9
sS'YF-Page-G0'
p10
S'3ef19ae4f7a156b9290efe7e6e7d1a63'
p11
sS'wvr'
p12
S'6'
sS'ULV'
p13
S'1428152548724:6:1:2:721727686468.5118.1428152548099:1427591190833'
p14
sS'SUHB'
p15
S'0jB5PfMU6JQivB'
p16
sS'__gads'
p17
S'ID'
p18
sS'YF-Ugrow-G0'
p19
S'69bfe9ce876ec10bd6de7dcebfb6883e'
p20
sS'YF-V5-G0'
p21
S'73b58b9e32dedf309da5103c77c3af4f'
p22
sS'SINAGLOBAL'
p23
S'4923967018257.826.1425265358995'
p24
sS'SUP'
p25
S'cv%3D1%26bt%3D1428455888%26et%3D1428542288%26d%3Dc909%26i%3Dccd7%26us%3D1%26vf%3D0%26vt%3D0%26ac%3D0%26st%3D0%26uid%3D2257461595%26name%3Dpig2cat%2540sina.com%26nick%3D%25E6%25B4%258B%25E5%25B0%258F%25E7%258C%25AB%25E7%259A%2584%25E5%2590%258E%25E8%258A%25B1%25E5%259B%25AD%26fmp%3D%26lcp%3D2014-04-30%252011%253A52%253A39'
p26
sS'Apache'
p27
S'721727686468.5118.1428152548099'
p28
sS'SUS'
p29
S'SID-2257461595-1428455888-GZ-4drwn-e19d723f567c27c1f1f4de13fe94ccd7'
p30
sS'SSOLoginState'
p31
S'1428455888'
p32
sS'_s_tentry'
p33
S'login.sina.com.cn'
p34
sS'UOR'
p35
S',,www.google.com.sg'
p36
s.