(dp1
S'UOR'
p2
S',,login.sina.com.cn'
p3
sS'SUE'
p4
S'es%3Dcbf34e159dac1b56a81c6e9dd1d02b07%26ev%3Dv1%26es2%3D0d852789ca44b93f32f9b8fc33fb97ba%26rs0%3DsPN46sYudhmkj%252Ba0mmG8Nd3eA6JsTu1kqAKfFolVnxxY57LmGObQvQsNrudz%252Fd5%252Fmmf73w8LMbPeZsbGQFiVPYkZDZCS6e%252F%252BMLTaUrWrGPFull%252ByNmM0cWOanpA0DUgpWvEwf7wM5YLzGJcp0eckYWzSqvU0S8os50YB02y2BuA%253D%26rv%3D0'
p5
sS'SUB'
p6
S'_2A254IXp_DeTxGeNL6FsR-CnIwj2IHXVbV-y3rDV8PUNbuNBuLRjAkW-AUkVA4YdGjqv-VuPqUXuBp2JvgQ..'
p7
sS'YF-V5-G0'
p8
S'73b58b9e32dedf309da5103c77c3af4f'
p9
sS'SINAGLOBAL'
p10
S'4923967018257.826.1425265358995'
p11
sS'SUP'
p12
S'cv%3D1%26bt%3D1428490799%26et%3D1428577199%26d%3Dc909%26i%3Dccd7%26us%3D1%26vf%3D0%26vt%3D0%26ac%3D27%26st%3D0%26uid%3D5539087491%26name%3Dyou17999177%2540163.com%26nick%3D%25E8%25A1%25A5%25E5%25A5%258B%25E5%25BC%25AF%26fmp%3D%26lcp%3D2015-04-04%252007%253A45%253A14'
p13
sS'SSOLoginState'
p14
S'1428490799'
p15
sS'YF-Page-G0'
p16
S'3ef19ae4f7a156b9290efe7e6e7d1a63'
p17
sS'WBtopGlobal_register_version'
p18
S'56b492c83030fda6'
p19
sS'Apache'
p20
S'721727686468.5118.1428152548099'
p21
sS'_s_tentry'
p22
S'login.sina.com.cn'
p23
sS'SUBP'
p24
S'0033WrSXqPxfM725Ws9jqgMF55529P9D9WWJE5lm.2VMDKDXjN-.5h.m5JpX5K2t'
p25
sS'wvr'
p26
S'6'
sS'ULV'
p27
S'1428152548724:6:1:2:721727686468.5118.1428152548099:1427591190833'
p28
sS'WBStore'
p29
S'bf5c852d78c6d23c|undefined'
p30
sS'__gads'
p31
S'ID'
p32
sS'appkey'
p33
S''
sS'SUHB'
p34
S'0Jvw-iZJkSn79x'
p35
sS'ALF'
p36
S'225377290799'
p37
sS'myuid'
p38
S'5534676323'
p39
sS'YF-Ugrow-G0'
p40
S'69bfe9ce876ec10bd6de7dcebfb6883e'
p41
sS'un'
p42
S'tangcang082@163.com'
p43
sS'login_sid_t'
p44
S'd0a46b790acedad0aee5695702377a7d'
p45
sS'SUS'
p46
S'SID-5539087491-1428490799-GZ-2mebn-c76bd23445f69aa0ed14a1e5a546ccd7'
p47
s.