(dp1
S'SUE'
p2
S'es%3Df80eacefd4f4f447dbe29b90bd78c4b6%26ev%3Dv1%26es2%3Db165c964b8e0a413c5c9b56bb978fd96%26rs0%3Dj97rzdWoZ8kQSnmKDRhSiVUcZiOLrId63eYzPEzPgleGsfteZBEVHSSvtIu7hLXFqGzTqFpDnO13yaAuf1P%252FGGw1SuuewPxQGWJmM6uiEbaZ1bRz6c%252B0TOiBsiftGRHGbP5OMw7eP7pSm7z163B7domuKb2PSgyw0F4WhVUJ1Yo%253D%26rv%3D0'
p3
sS'SUB'
p4
S'_2AkMjP55Va8NlrAZSnPwWxG7gaYtH-jyQ7FKjAn7uJhMyHRh77ldSqSUqV0D4B2cXt_TIc1aeWw-FmfvLAw..'
p5
sS'SUBP'
p6
S'0033WrSXqPxfM725Ws9jqgMF55529P9D9WFiWKxorgU7H9oD3ShFAlCC5JpX5K2t'
p7
sS'YF-Page-G0'
p8
S'f70469e0b5607cacf38b47457e34254f'
p9
sS'ULV'
p10
S'1415778247059:10:7:2:3774758167564.869.1415778247001:1415606403157'
p11
sS'myuid'
p12
S'5343108688'
p13
sS'YF-Ugrow-G0'
p14
S'5b31332af1361e117ff29bb32e4d8439'
p15
sS'WBtopGlobal_register_version'
p16
S'fbfbfbcb9cac9bbd'
p17
sS'un'
p18
S'feijieshouwo2bai@163.com'
p19
sS'SINAGLOBAL'
p20
S'7734374171122.908.1414377016987'
p21
sS'YF-V5-G0'
p22
S'590253f9bb559fcb4f19c58020522401'
p23
sS'SUP'
p24
S'cv%3D1%26bt%3D1415778658%26et%3D1415865058%26d%3Dc909%26i%3Decae%26us%3D1%26vf%3D%26vt%3D%26ac%3D%26st%3D0%26uid%3D5344385256%26name%3Dfeijieshouwo4bai%2540163.com%26nick%3D%25E9%25A3%259E%25E5%25A7%2590%25E5%258F%2597%25E6%2588%25914%25E6%258B%259C%26fmp%3D%26lcp%3D'
p25
sS'Apache'
p26
S'3774758167564.869.1415778247001'
p27
sS'SUS'
p28
S'SID-5344385256-1415778658-XD-zckvl-1a88f203937c7cc76f1075bc4d949616'
p29
sS'SSOLoginState'
p30
S'1415778659'
p31
sS'_s_tentry'
p32
S'us.weibo.com'
p33
s.