(dp1
S'SUE'
p2
S'es%3Da27e042d9d581c35d7d04bf9f402263e%26ev%3Dv1%26es2%3D74dfa20840e100b5b495e747d9b7a690%26rs0%3DXLT5LbeDcRpLgj3XqjgjbY3Pu1nVSNqoO3ZvbdvM1WCJTf48C2zrYUcUUuOHzZ5jXbhsd1ah8xAxAnf4VeBr%252Bg1jZrf4lDwnglkM83j7JgLSWBG7hMJfz1E7H2uiYfiGxySvK6CtBDA6vS%252FG9WeNSPOJDxqmM6JevKuOHoDfQ34%253D%26rv%3D0'
p3
sS'SUB'
p4
S'_2A254IITJDeTxGeNL6FYX9yjPzTiIHXVbV_EBrDV8PUNbuNBeLVXTkW9IrGRJy18gG99zFpJts8bFGUgOcg..'
p5
sS'YF-V5-G0'
p6
S'69afb7c26160eb8b724e8855d7b705c6'
p7
sS'SINAGLOBAL'
p8
S'4432786474935.71.1425888241997'
p9
sS'SUP'
p10
S'cv%3D1%26bt%3D1428485273%26et%3D1428571673%26d%3Dc909%26i%3D6063%26us%3D1%26vf%3D0%26vt%3D0%26ac%3D27%26st%3D0%26uid%3D5534676364%26name%3Djiaodi177111%2540163.com%26nick%3D%25E9%2587%258E%25E5%2581%25BF%25E7%25BB%2591%26fmp%3D%26lcp%3D2015-04-04%252007%253A46%253A12'
p11
sS'SSOLoginState'
p12
S'1428485273'
p13
sS'YF-Page-G0'
p14
S'fd1c2f5a1b1b0aec242690ee6b1d7f51'
p15
sS'WBtopGlobal_register_version'
p16
S'56b492c83030fda6'
p17
sS'Apache'
p18
S'3664370903279.6323.1428482455247'
p19
sS'_s_tentry'
p20
S'login.sina.com.cn'
p21
sS'__utmz'
p22
S'15428400.1427359191.1.1.utmcsr=weibo.com|utmccn=(referral)|utmcmd=referral|utmcct=/'
p23
sS'SUBP'
p24
S'0033WrSXqPxfM725Ws9jqgMF55529P9D9WFy2_PCHvh7JGpvpaZelWPT5JpX5K2t'
p25
sS'wvr'
p26
S'6'
sS'ULV'
p27
S'1428482455287:10:3:1:3664370903279.6323.1428482455247:1428028173429'
p28
sS'__utma'
p29
S'15428400.1284777743.1427359191.1427359191.1427359191.1'
p30
sS'SUHB'
p31
S'0FQ7W5_NZptLPv'
p32
sS'ALF'
p33
S'1460021271'
p34
sS'myuid'
p35
S'5539087544'
p36
sS'YF-Ugrow-G0'
p37
S'ad06784f6deda07eea88e095402e4243'
p38
sS'un'
p39
S'jiaodi177111@163.com'
p40
sS'login_sid_t'
p41
S'e630f9ef01f776cf74b14dd6dc4272bb'
p42
sS'SUS'
p43
S'SID-5534676364-1428485273-GZ-hcg8p-0a2f47b2c9379a4bdf3deeba912f6063'
p44
s.