(dp1
S'UOR'
p2
S',,login.sina.com.cn'
p3
sS'SUE'
p4
S'es%3D2757f4dc51257b4e4ea153d1e07858b3%26ev%3Dv1%26es2%3Da75c1caf2821d1b854d4f3c5338d9910%26rs0%3DdgSxZuSpFRCZ2O1DSJbAKIUpeev84jF%252BfSq%252Fr4CBp6%252BxaLhKFPOw7wgEbhsL8LsOEMTpPKSGIVar%252Bn%252BsBneHxYTpXwSzBazuwYSSYL8RXxW%252Fo%252FF3vIYSoYN%252F%252B5S4NILKZsza6pD6yqPxAojIqFKkEn0ZakjrwIACA1usKjnw5ZE%253D%26rv%3D0'
p5
sS'SUB'
p6
S'_2A254IIQfDeTxGeNL6FYX9yjPyz2IHXVbV_LXrDV8PUNbuNBuLW3BkW8YocQMo9DftYAlE9EnV7rKaK7B-Q..'
p7
sS'YF-V5-G0'
p8
S'73b58b9e32dedf309da5103c77c3af4f'
p9
sS'SINAGLOBAL'
p10
S'4923967018257.826.1425265358995'
p11
sS'SUP'
p12
S'cv%3D1%26bt%3D1428485199%26et%3D1428571599%26d%3Dc909%26i%3Dccd7%26us%3D1%26vf%3D0%26vt%3D0%26ac%3D27%26st%3D0%26uid%3D5534676301%26name%3Djingdu333753%2540163.com%26nick%3D%25E4%25B9%2583%25E5%2593%25A8%25E8%2582%2589%25E9%2599%25B5%26fmp%3D%26lcp%3D2015-04-04%252007%253A44%253A42'
p13
sS'SSOLoginState'
p14
S'1428485199'
p15
sS'YF-Page-G0'
p16
S'3ef19ae4f7a156b9290efe7e6e7d1a63'
p17
sS'WBtopGlobal_register_version'
p18
S'56b492c83030fda6'
p19
sS'Apache'
p20
S'721727686468.5118.1428152548099'
p21
sS'_s_tentry'
p22
S'login.sina.com.cn'
p23
sS'SUBP'
p24
S'0033WrSXqPxfM725Ws9jqgMF55529P9D9W5FUDcUGH25ub9DC_npaB6x5JpX5K2t'
p25
sS'wvr'
p26
S'6'
sS'ULV'
p27
S'1428152548724:6:1:2:721727686468.5118.1428152548099:1427591190833'
p28
sS'WBStore'
p29
S'bf5c852d78c6d23c|undefined'
p30
sS'__gads'
p31
S'ID'
p32
sS'appkey'
p33
S''
sS'SUHB'
p34
S'0mxENIJwCVsDjw'
p35
sS'ALF'
p36
S'225377285199'
p37
sS'myuid'
p38
S'5480461734'
p39
sS'YF-Ugrow-G0'
p40
S'69bfe9ce876ec10bd6de7dcebfb6883e'
p41
sS'un'
p42
S'tangcang082@163.com'
p43
sS'login_sid_t'
p44
S'd0a46b790acedad0aee5695702377a7d'
p45
sS'SUS'
p46
S'SID-5534676301-1428485199-GZ-gw1i4-e7e3419cc9fcac0c1958c4df33a4ccd7'
p47
s.