(dp1
S'UOR'
p2
S',,login.sina.com.cn'
p3
sS'SUE'
p4
S'es%3D8bcddfdfd77a273092ba7a8719f7750f%26ev%3Dv1%26es2%3De997987b94555802c00f7556a1399c38%26rs0%3DPG%252BJyvrFTJYOEI%252BDyG7uWciFeLRIAO%252BAOzGy9JcMJLtUV%252BGXlepIm6qQ4UQp1Kd35YjUZRsHurPtM7725BRRRG30WOMrWT1SlfHrfDqwzhleR3ZYnVmr735lEJUViOJ3PwvrFeZMvntkkpQQ5NwoQMyHG35WMB8UuiddK3cBk0g%253D%26rv%3D0'
p5
sS'SUB'
p6
S'_2A254IX_DDeTxGeNL6FYX9yjPyDqIHXVbV9YLrDV8PUNbuNBuLVLZkW8SSOfv6y0etMxg29yy7BkZaD0iIw..'
p7
sS'YF-V5-G0'
p8
S'73b58b9e32dedf309da5103c77c3af4f'
p9
sS'SINAGLOBAL'
p10
S'4923967018257.826.1425265358995'
p11
sS'SUP'
p12
S'cv%3D1%26bt%3D1428492179%26et%3D1428578579%26d%3Dc909%26i%3Dccd7%26us%3D1%26vf%3D0%26vt%3D0%26ac%3D27%26st%3D0%26uid%3D5534676336%26name%3Dchuixiong888627%2540163.com%26nick%3D%25E6%2582%2584%25E8%2583%25B3%25E9%259C%25B8%25E5%25BC%2582%26fmp%3D%26lcp%3D2015-04-04%252007%253A45%253A35'
p13
sS'SSOLoginState'
p14
S'1428492179'
p15
sS'YF-Page-G0'
p16
S'3ef19ae4f7a156b9290efe7e6e7d1a63'
p17
sS'WBtopGlobal_register_version'
p18
S'56b492c83030fda6'
p19
sS'Apache'
p20
S'721727686468.5118.1428152548099'
p21
sS'_s_tentry'
p22
S'login.sina.com.cn'
p23
sS'SUBP'
p24
S'0033WrSXqPxfM725Ws9jqgMF55529P9D9WhzrDkHlew9C6bXCIFoYQl85JpX5K2t'
p25
sS'wvr'
p26
S'6'
sS'ULV'
p27
S'1428152548724:6:1:2:721727686468.5118.1428152548099:1427591190833'
p28
sS'WBStore'
p29
S'bf5c852d78c6d23c|undefined'
p30
sS'__gads'
p31
S'ID'
p32
sS'appkey'
p33
S''
sS'SUHB'
p34
S'0OM0ZIyQ2MEWF-'
p35
sS'ALF'
p36
S'225377292177'
p37
sS'myuid'
p38
S'5534676332'
p39
sS'YF-Ugrow-G0'
p40
S'69bfe9ce876ec10bd6de7dcebfb6883e'
p41
sS'un'
p42
S'tangcang082@163.com'
p43
sS'login_sid_t'
p44
S'd0a46b790acedad0aee5695702377a7d'
p45
sS'SUS'
p46
S'SID-5534676336-1428492179-GZ-jrvek-3e2d7a2cba5966854fe3d396e009ccd7'
p47
s.