(dp1
S'UOR'
p2
S'comic.letv.com,widget.weibo.com,login.sina.com.cn'
p3
sS'SUE'
p4
S'es%3D78da14f54321cd65462b83c49818e859%26ev%3Dv1%26es2%3D40ad58e78c360579598d947d7fc4ed49%26rs0%3D6kyFh7J5fIwHd8aS0Lifqo1Z78zwNpVC7pv45obPW0X93hHMkF3L%252B5qisGpmnz5k8U9IbHk%252Blknv%252BIlF%252B5ehpC45xyoZSWhJFy10qJvzETjwkIZToQArk3kOShVbv8GQIWC4dw3HvDFgD4eDKGP3krlW5BritLyL336saSPjTEU%253D%26rv%3D0'
p5
sS'SUB'
p6
S'_2A254K8KiDeTxGeNN71YX9izFyjmIHXVbQLNqrDV8PUNbuNBeLUbhkW9WmdYXeapLgZnT1jpxKUZOf8FtWg..'
p7
sS'SUBP'
p8
S'0033WrSXqPxfM725Ws9jqgMF55529P9D9WhH1MH6OunaUovW2Eo7STYe5JpX5K2t'
p9
sS'YF-Page-G0'
p10
S'19f6802eb103b391998cb31325aed3bc\n'
p11
sS'ALF'
p12
S'1460725360'
p13
sS'ULV'
p14
S'1429189335661:6:2:2:3796508801169.6934.1429189335589:1428979527315'
p15
sS'myuid'
p16
S'5565969402'
p17
sS'login_sid_t'
p18
S'5a21f85606a18ce0675c9c79a2ddd521'
p19
sS'un'
p20
S'feijieshouwo0bai@163.com'
p21
sS'SINAGLOBAL'
p22
S'5940188283566.386.1418965065817'
p23
sS'SUP'
p24
S'cv%3D1%26bt%3D1429189362%26et%3D1429275762%26d%3Dc909%26i%3D6063%26us%3D1%26vf%3D0%26vt%3D0%26ac%3D25%26st%3D0%26uid%3D5344662915%26name%3Dfeijieshouwo0bai%2540163.com%26nick%3D%25E9%25A3%259E%25E5%25A7%2590%25E5%258F%2597%25E6%2588%2591%25E4%25B8%2580%25E6%258B%259C%26fmp%3D%26lcp%3D'
p25
sS'Apache'
p26
S'3796508801169.6934.1429189335589'
p27
sS'SUS'
p28
S'SID-5344662915-1429189362-GZ-yrmi4-68335ac51fc782a22ca0a0c8332b6063'
p29
sS'SSOLoginState'
p30
S'1429189362'
p31
sS'_s_tentry'
p32
S'login.sina.com.cn'
p33
sS'SUHB'
p34
S'0HTxIrmpeWxfZA'
p35
s.