(dp1
S'UOR'
p2
S',,login.sina.com.cn'
p3
sS'SUE'
p4
S'es%3Dc1257dca614946a4ef8f76053da52a84%26ev%3Dv1%26es2%3Df36146fdd79e91394ca09c2ef6474d01%26rs0%3DH0EqWq1U3J9Ta1RMUcrBvGy3NLMyRvpUZesLlST32O7l4FqhBD%252FanpqHMLszjwdtDLxpQesCbSYgzwr7GYRfFewW8HferNGqyXIt%252BKJ%252Fyc5QRoBcvpskeOuIiYjQYi%252FYcRHGrL%252BcFNLu%252BIAPySbAesbpTnNFOzTENcjP7XzDl%252F4%253D%26rv%3D0'
p5
sS'SUB'
p6
S'_2A254IXtaDeTxGeNK41IV9i_LzzqIHXVbV-uSrDV8PUNbuNBuLRD5kW-LYByQda-sy3Nvj8feIPBYk3NpHQ..'
p7
sS'YF-V5-G0'
p8
S'73b58b9e32dedf309da5103c77c3af4f'
p9
sS'SINAGLOBAL'
p10
S'4923967018257.826.1425265358995'
p11
sS'SUP'
p12
S'cv%3D1%26bt%3D1428491018%26et%3D1428577418%26d%3Dc909%26i%3Dccd7%26us%3D1%26vf%3D0%26vt%3D0%26ac%3D27%26st%3D0%26uid%3D5480461746%26name%3Ddanzheng1177%2540163.com%26nick%3D%25E6%25B5%25B7%25E8%25B7%25B5%25E9%259D%25A0%25E7%259B%25BC%25E8%25B4%259F%26fmp%3D%26lcp%3D2015-04-04%252007%253A45%253A19'
p13
sS'SSOLoginState'
p14
S'1428491018'
p15
sS'YF-Page-G0'
p16
S'3ef19ae4f7a156b9290efe7e6e7d1a63'
p17
sS'WBtopGlobal_register_version'
p18
S'56b492c83030fda6'
p19
sS'Apache'
p20
S'721727686468.5118.1428152548099'
p21
sS'_s_tentry'
p22
S'login.sina.com.cn'
p23
sS'SUBP'
p24
S'0033WrSXqPxfM725Ws9jqgMF55529P9D9WhARRmKczmn0r1q3aFh6o5q5JpX5K2t'
p25
sS'wvr'
p26
S'6'
sS'ULV'
p27
S'1428152548724:6:1:2:721727686468.5118.1428152548099:1427591190833'
p28
sS'WBStore'
p29
S'bf5c852d78c6d23c|undefined'
p30
sS'__gads'
p31
S'ID'
p32
sS'appkey'
p33
S''
sS'SUHB'
p34
S'0M2VscDb-P4UVE'
p35
sS'ALF'
p36
S'225377291018'
p37
sS'myuid'
p38
S'5539087490'
p39
sS'YF-Ugrow-G0'
p40
S'69bfe9ce876ec10bd6de7dcebfb6883e'
p41
sS'un'
p42
S'tangcang082@163.com'
p43
sS'login_sid_t'
p44
S'd0a46b790acedad0aee5695702377a7d'
p45
sS'SUS'
p46
S'SID-5480461746-1428491018-GZ-t4wuo-d07eebe59245b6d9668742776908ccd7'
p47
s.