(dp1
S'SUE'
p2
S'es%3D669f733844db8d8ea8468e36bcac9a3c%26ev%3Dv1%26es2%3D7492715d521f51aff9a4625e2bbd82e0%26rs0%3DIqzvGOeGetI4W9VZt54C3vj0wqbZL2dPAw6V4bFXkQeZiq2iD6N3nvTFLaUUmOvzHt9et8nDTk0ysvmgPyQPNRafUX3YHZBqxY30vTEWT4f68qQHmFuZE1EpW9PX9IcxifWkwB8atk7JAL%252FJm6%252BnK%252BTIKrnJMPt8SyreVAIE8Rs%253D%26rv%3D0'
p3
sS'SUB'
p4
S'_2A254IJzkDeTxGeNL6FsR-CnIzDiIHXVbV4ksrDV8PUNbuNBeLWbekW8lR4xZZiz6tO2oQ84LoDvw-jQopQ..'
p5
sS'YF-V5-G0'
p6
S'69afb7c26160eb8b724e8855d7b705c6'
p7
sS'SINAGLOBAL'
p8
S'4432786474935.71.1425888241997'
p9
sS'SUP'
p10
S'cv%3D1%26bt%3D1428483252%26et%3D1428569652%26d%3Dc909%26i%3D6063%26us%3D1%26vf%3D0%26vt%3D0%26ac%3D27%26st%3D0%26uid%3D5539087474%26name%3Dsiyi6157577%2540163.com%26nick%3D%25E8%25AE%25A1%25E8%258B%258F%25E6%2584%2588%25E5%2585%25A5%26fmp%3D%26lcp%3D2015-04-04%252007%253A45%253A12'
p11
sS'SSOLoginState'
p12
S'1428483252'
p13
sS'YF-Page-G0'
p14
S'fd1c2f5a1b1b0aec242690ee6b1d7f51'
p15
sS'WBtopGlobal_register_version'
p16
S'56b492c83030fda6'
p17
sS'Apache'
p18
S'3664370903279.6323.1428482455247'
p19
sS'_s_tentry'
p20
S'login.sina.com.cn'
p21
sS'__utmz'
p22
S'15428400.1427359191.1.1.utmcsr=weibo.com|utmccn=(referral)|utmcmd=referral|utmcct=/'
p23
sS'SUBP'
p24
S'0033WrSXqPxfM725Ws9jqgMF55529P9D9Wh7kLSoIucz3FAic7nY1EkZ5JpX5K2t'
p25
sS'wvr'
p26
S'6'
sS'ULV'
p27
S'1428482455287:10:3:1:3664370903279.6323.1428482455247:1428028173429'
p28
sS'__utma'
p29
S'15428400.1284777743.1427359191.1427359191.1427359191.1'
p30
sS'SUHB'
p31
S'0LcC5n5EzXMAdR'
p32
sS'ALF'
p33
S'1460019251'
p34
sS'myuid'
p35
S'5539087518'
p36
sS'YF-Ugrow-G0'
p37
S'ad06784f6deda07eea88e095402e4243'
p38
sS'un'
p39
S'siyi6157577@163.com'
p40
sS'login_sid_t'
p41
S'e630f9ef01f776cf74b14dd6dc4272bb'
p42
sS'SUS'
p43
S'SID-5539087474-1428483252-GZ-5rfln-4623eb4281c740333eb2cdac72d26063'
p44
s.